
 Start         Length     Name                   Class
 0002:01FF8020 000001380H ITCM                   CODE
 0001:02000000 000004000H STATIC_RAM             DATA
 0000:02004000 00008AE50H ARM9                   CODE
 0001:0208EE50 00000E930H ARM9_DATA              DATA
 0001:0209D780 0000B1DC0H ARM9_BSS               BSS
 0005:0214FF40 0000004C0H OVL_10                 CODE
 0004:02150400 00001E280H OVL_12                 CODE
 0001:0216E680 000000020H OVL_12_BSS             BSS
 0006:02170380 000000EC0H OVL_27                 CODE
 000E:02176B40 000005B60H OVL_33                 CODE
 0007:0217C980 000002CC0H OVL_35                 CODE
 0008:0217F640 0000561A0H OVL_36                 CODE
 0001:021D57E0 000010040H OVL_36_BSS             BSS
 0009:021E5840 000000400H OVL_66                 CODE
 000C:021E8C20 0000000A0H OVL_279                CODE
 000A:021E9100 0000017A0H OVL_76                 CODE
 000F:021EECC0 000001B40H OVL_104                CODE
 0010:021F5A20 000000280H OVL_146                CODE
 0011:021F5CA0 000000160H OVL_147                CODE
 0003:02FE0000 000004000H SHARED_WORK            DATA
 0001:02FFF000 000001000H SYSTEM                 DATA
 0001:04000000 000004000H ARM9_IOREG             DATA
 0001:05000000 000000800H STD_PALETTE            DATA
 0001:06800000 0000A4000H VRAM_LCDC              DATA


  Address         Publics by Value

 0002:01FF8020       mainRenderer
 0002:01FF8BF0       dma_beginSyncEx
 0002:01FF8C88       CPU_IRQInvoke
 0002:01FF90B0       pWriteStart
 0002:01FF9290       dst
 0001:02000000       HW_ITCM_END
 0001:020000B4       aGame_beacon_searcha
 0001:02000D24       aWih_dwc_c_0
 0001:020010F0       aWih_dwc_c_1
 0000:02004280       SVC_WaitByLoop
 0000:02004350       SVC_SoftReset
 0000:02004800       _start
 0000:020049AC       destp
 0000:02004A00       asm_MemSet32
 0000:02004A14       boot_InitTCM
 0000:02004BB4       boot_BootstrapExec
 0000:02004DF4       sys_uncomp_blz
 0000:02004EB4       asm_HWIsDSi
 0000:02004ED4       asm_MemCpy32Fast
 0000:02004F20       boot_MemSet32Fast
 0000:02005050       aSdkNintendoDwc
 0000:02005094       aSdkNintendoBac
 0000:020050AC       aSdkUbiquitousC
 0000:020050C4       aSdkNintendoWif
 0000:020050F0       aSdkUbiquitousS
 0000:02005108       aSdkNintendoLib
 0000:02005124       main
 0000:020051C4       function
 0000:0200522C       GFLAppIRQHBlank
 0000:02005234       GFLAppIRQVBlank
 0000:02005258       GameUpdateVBlank
 0000:02005264       GameInit
 0000:02005328       GameUpdate
 0000:02005348       setMonoSnd
 0000:02005364       SystemInit
 0000:02005410       pTaskArray
 0000:02005420       j_276952D
 0000:02005424       dsi276952D
 0000:02005464       j_2769595
 0000:02005468       dsi2769595
 0000:02005474       j_27694DD
 0000:02005478       dsi27694DD
 0000:02005484       SystemUpdateVBlank
 0000:02005494       dsiJump_2769589
 0000:020054A8       j_2769589
 0000:020054AC       dsi2769589
 0000:020054B8       GFLAppInit
 0000:0200563C       pNarcPathList
 0000:02005644       pSourceFile
 0000:02005648       lineNo
 0000:02005654       GFLAppUpdate
 0000:02005668       nullsub_4
 0000:0200566C       GFL_HBlankTCBUpdate
 0000:02005680       GFL_HBlankTCBAdd
 0000:0200569C       GFL_VBlankExecCallback
 0000:020056B0       GFL_VBlankSetCallback
 0000:020056C8       GFL_VBlankResetCallback
 0000:020056D8       GFL_VBlankUpdate
 0000:020056FC       GFL_VBlankTCBAdd
 0000:02005718       GFL_VBlankGetTCBMgr
 0000:02005724       GFL_RandomInitLC
 0000:0200572C       GFL_RandomInit
 0000:02005748       GFL_RandomLC
 0000:02005784       GFL_RandomLCAlt
 0000:020057B8       GFL_ArcSysGetResourcePath
 0000:020057C4       finishFunc
 0000:020057F0       GFL_SndMute
 0000:020057FC       GFL_SndSetMaxVol
 0000:02005808       GFL_SndSetVolumeControlCallbacks
 0000:02005820       GFL_SndIsVolumeControlCallbackSet
 0000:0200592C       GFL_SndGetLastResID
 0000:02005B80       GFL_SndInit
 0000:02005BC4       j_2704364
 0000:02005BCC       GFL_SndInitCore
 0000:02005C18       GFL_SndUpdate
 0000:02005C9C       GFL_SndBGMGetID
 0000:02005CF0       GFL_IRQCartDataTransferIsEnabled
 0000:02005D08       GFL_SndPlayerSetMuteStateEx
 0000:02005D20       GFL_SndPlayerSetVolumeEx
 0000:02005D44       GFL_SndSeqVerify
 0000:02005D98       GFL_SndBGMPlayCore
 0000:02005DF4       GFL_SndBGMPlay
 0000:02005E10       GFL_SndBGMStop
 0000:02005E54       GFL_SndBGMSetPaused
 0000:02005E68       GFL_SndBGMFadeIn
 0000:02005E74       GFL_SndBGMFadeInEx
 0000:02005EA0       GFL_SndBGMFadeOut
 0000:02005EC0       GFL_SndBGMIsFading
 0000:02005ED4       GFL_SndBGMPush
 0000:02005F08       trackBitMask
 0000:02005F0C       GFL_SndBGMPop
 0000:02005F24       GFL_SndBGMSetChannelMask
 0000:02005F50       GFL_SndBGMSetParams
 0000:02005F94       GFL_SndBGMSetVolume
 0000:02005FA8       GFL_SndBGMIsPlaying
 0000:02006188       GFL_SndResetPlayerStates
 0000:020061B8       GFL_SndSeqGetPlayerIndex
 0000:020061DC       GFL_SEPlayKeepVol
 0000:02006214       GFL_SndSEPlayCore
 0000:02006254       GFL_SndSEPlay
 0000:02006260       GFL_SndSEPlayEx
 0000:02006268       GFL_SndPlayerStop
 0000:02006280       GFL_SndStop
 0000:02006294       GFL_SndPlayerIsActive
 0000:020062A8       GFL_SndPlayerIsActiveAny
 0000:020062C4       GFL_SndIsPlaying
 0000:020062D8       GFL_SndPlayerSetParams
 0000:02006328       speed
 0000:0200632C       GFL_SndPlayerSetVolume
 0000:02006348       GFL_SndThreadProc2
 0000:0200635C       GFL_SndThreadProc1
 0000:020065B0       bankNo
 0000:020065B4       PokeVoice_Init
 0000:02006648       PokeVoice_ReleaseAll
 0000:0200666C       PokeVoice_Update
 0000:020066C0       PokeVoice_IsPlayingAny
 0000:020066E4       PokeVoice_AllocMulti
 0000:02006758       PokeVoice_FreeMulti
 0000:020067A4       PokeVoice_SetMasterVolume
 0000:020067B0       PokeVoice_ResetMasterVolume
 0000:020067BC       PokeVoice_CalcVolume
 0000:020067D8       PokeVoice_AcquireHandle
 0000:02006814       PokeVoice_Reset
 0000:02006840       PokeVoice_ResetEx
 0000:02006850       PokeVoice_LoadWaveArc
 0000:020068D8       PokeVoice_StartPlaybackCore
 0000:020069B8       PokeVoice_ReleaseCore
 0000:020069F4       PokeVoice_Play
 0000:02006A44       PokeVoice_Load
 0000:02006AD4       PokeVoice_StartPlayback
 0000:02006AFC       PokeVoice_AdjustVolume
 0000:02006B5C       PokeVoice_AdjustSpeed
 0000:02006B90       PokeVoice_GetVolume
 0000:02006BAC       PokeVoice_GetSpeed
 0000:02006BCC       PokeVoice_GetSamples
 0000:02006BE8       PokeVoice_GetSampleCount
 0000:02006C04       PokeVoice_GetSampleRate
 0000:02006C24       PokeVoice_Release
 0000:02006C40       PokeVoice_IsPlaying
 0000:02006C50       PokeVoice_ReverseSamples
 0000:02006C70       getResIDFunc
 0000:02006CC8       getWaveInfoFunc
 0000:02006D54       PokeVoice_CreateChatterInfo
 0000:02006D64       setupMic
 0000:02006DE4       j_27047C0
 0000:02006DEC       ampOffFreeBlocks
 0000:02006EE8       BGMInfo_Create
 0000:02006F0C       BGMInfo_Free
 0000:02006F24       BGMInfo_GetISSSubsystem
 0000:02006F4C       BGMInfo_LoadArcData
 0000:02006FC8       GFL_SndStreamInit
 0000:0200700C       GFL_SndStreamFree
 0000:0200703C       GFL_SndStreamUpdate
 0000:02007040       GFL_SndStreamCheckInit
 0000:02007054       GFL_SndStreamPlay
 0000:02007090       GFL_SndStreamStop
 0000:020070A4       GFL_SndStreamIsPlaying
 0000:020070C0       GFL_SndStreamFadeStop
 0000:020070D4       GFL_SndStreamReset
 0000:020070F0       SaveControl_Create
 0000:02007166       jpt_2007164
 0000:020071BE       jpt_20071BC
 0000:020071F8       def_20071BC
 0000:02007210       def_2007164
 0000:020072D4       SaveControl_Free
 0000:020072FC       SaveControl_GetInstance
 0000:02007448       SaveControl_GetBlockPtr
 0000:02007460       SaveControl_GetStatus
 0000:02007468       SaveControl_IsDataAlreadyPresent
 0000:02007534       freeIntermediateSaveExtraBlksAfterLoad
 0000:020075E0       freeIntermediateSaveExtraBlksAfterLoad2
 0000:02007678       getAddressOfExtraSaveBlk
 0000:02007718       BoxMainSave_GetBlockSize
 0000:02007720       BoxMainSave_Init
 0000:02007788       BoxSaveAccessor_GetMainSave
 0000:02007794       BoxSaveAccessor_InsertPkm
 0000:020077E8       BoxSaveAccessor_InsertPkmCore
 0000:02007870       BoxSaveAccessor_SetPkm
 0000:020078D4       BoxSaveAccessor_SwapPkms
 0000:02007928       BoxSaveAccessor_ClearPkm
 0000:0200795C       BoxSaveAccessor_GetLastOpenedBox
 0000:02007968       BoxSaveAccessor_GetAvailableBoxCount
 0000:02007978       BoxSaveAccessor_UnlockMoreBoxes
 0000:02007994       BoxSaveAccessor_GetNextFreeBoxSlot
 0000:02007A7C       countEmptySlotsInBox
 0000:02007AD4       saveLastOpenedBoxIdx
 0000:02007AE4       getBoxNumFromIdx
 0000:02007B24       loadBoxNameToStrbuf
 0000:02007B64       getBoxNameFromStrbuf
 0000:02007B90       howManyPokesInGeneralAreInBox
 0000:02007BEC       howManyNormalPokesAreInBox
 0000:02007C58       howManyTotalPokesAreInBoxes
 0000:02007C74       howManyNormalPokesAreInAllBoxes
 0000:02007C90       BoxSaveAccessor_GetPkmParam
 0000:02007CF4       BoxSaveAccessor_GetPkm
 0000:02007D4C       copyBoxedPkmToBuf
 0000:02007DC0       getSizeofPokeBox
 0000:02007DC8       BoxSaveAccessor_Create
 0000:02007DE8       BoxSaveAccessor_Free
 0000:02007DF0       initFullBox
 0000:02007E0C       getSizeofBox
 0000:02007E14       BoxSaveAccessor_GetBox
 0000:02007E28       initChatotChatter
 0000:02007E40       allocChatotChatterBlk
 0000:02007E64       getChatterBlockAddress
 0000:02007E70       doesChatotExist
 0000:02007E74       setChatotNotPresent
 0000:02007E7C       setChatotPresent
 0000:02007E84       getChatterVoice
 0000:02007F40       moveChatter
 0000:02007F54       checkChatotInParty
 0000:02007FD0       BagSave_GetBlockSize
 0000:02007FD8       BagSave_Init
 0000:02007FE8       BagSave_CopyPocket
 0000:02008074       BagSave_CopyPocketRaw
 0000:020080AC       BagSave_DefragmentFreeSpace
 0000:020080FC       BagSave_GetPocketPtr
 0000:0200810E       jpt_200810C
 0000:02008152       def_200810C
 0000:02008174       BagSave_GetPocketPtrByItem
 0000:02008194       BagSave_GetItemHandleAddCheckCore
 0000:020081F8       BagSave_GetItemHandleAddCheck
 0000:02008234       maxQuantity
 0000:02008238       BagSave_CheckAvailItemSpace
 0000:0200824C       BagSave_AddItemCore
 0000:02008268       BagSave_AddItem
 0000:0200827C       BagSave_AddItemAsFirst
 0000:020082BC       BagSave_GetItemHandleIfAmountCore
 0000:020082E8       BagSave_GetItemHandleIfAmount
 0000:02008308       BagSave_IsItemFreeSpaceBit
 0000:02008338       BagSave_IsItemInFreeSpace
 0000:02008360       BagSave_MoveBetweenFreeSpace_
 0000:020083C0       BagSave_MoveBetweenFreeSpace
 0000:020083C8       BagSave_GetExistingItemPocket
 0000:020083EC       BagSave_IsItemInDesignatedPocket
 0000:0200842C       BagSave_SubItem
 0000:02008474       BagSave_CheckAmount
 0000:02008488       BagSave_GetUniqueItemCount
 0000:020084AC       BagSave_GetPocketItemCountCore
 0000:020084F8       BagSave_GetPocketItemCount
 0000:0200850C       BagSave_GetFreeSpaceItemCount
 0000:02008538       BagSave_GetItemCountByID
 0000:02008578       BagSave_SwapItems
 0000:0200859C       BagSave_MoveLastToFirst
 0000:020085E0       BagSave_ForceItemAsLast
 0000:02008658       BagSave_ClearEmpty
 0000:02008678       BagSave_Defragment
 0000:020086C0       sortItemBlocks
 0000:02008730       BagSave_GetItemIndexHandle
 0000:02008740       jpt_200873E
 0000:02008774       def_200873E
 0000:02008798       BagSave_GetItemHandle
 0000:020087CC       BagSave_SwitchOwnedDNASplicers
 0000:02008848       PML_ItemGetMaxStorageCount
 0000:020088F0       PML_ItemGetType
 0000:020088FC       BagSave_GetActualItemPocket
 0000:02008914       BagSave_ClearItemEntry
 0000:0200897C       initKeyBlk
 0000:02008984       pTemp
 0000:020089B4       initConfig
 0000:02008A30       getSoundFlags
 0000:02008B74       copyTrainerName
 0000:02008B84       copyTrainerNameFromStrbuf
 0000:02008B94       GetPlayerName
 0000:02008B98       copyName
 0000:02008BA0       textCopy
 0000:02008BB0       copyTrainerNameToNewStrbuf
 0000:02008BCC       setIDAsUInt
 0000:02008BD0       getIDAsUInt
 0000:02008BD4       getTrainerID
 0000:02008BEC       setTrainerGender
 0000:02008BF0       getTrainerGender
 0000:02008C0C       UnityTowerVisitor_GetCountry
 0000:02008C10       UnityTowerVisitor_GetProvince
 0000:02008C1C       setupPlaytimeCounters
 0000:02008C74       updateGameTime
 0000:02008DA0       getSizeofTrainerData
 0000:02008DDC       getTrainerDataBlkAddress
 0000:02008EC8       PlayerSave_GetBlockSize
 0000:02008ECC       PlayerSave_Init
 0000:02008EF0       PlayerSave_GetNowSpawnZone
 0000:02008EF4       PlayerSave_GetNextSpawnZone
 0000:02008EF8       PlayerSave_GetEscapeRopeZone
 0000:02008EFC       PlayerSave_GetReturnZoneIDPtr
 0000:02008F00       SaveControl_GetPlayerSave
 0000:02008F0C       SaveControl_SavePlayerState
 0000:02008F64       SaveControl_LoadPlayerState
 0000:02008FD8       PlayerSave_SaveFieldStatus
 0000:02008FE8       PlayerSave_LoadFieldStatus
 0000:02008FF8       PlayerSave_SaveSeason
 0000:02009000       PlayerSave_LoadSeason
 0000:02009008       PlayerSave_SaveWeather
 0000:02009010       PlayerSave_LoadWeather
 0000:02009018       PlayerSave_SaveFollowWk
 0000:02009078       PlayerSave_LoadFollowWk
 0000:020090D0       PlayerSave_SetEggCycleSubsteps
 0000:020090D4       PlayerSave_GetEggCycleSubsteps
 0000:020090DC       PlayerSave_GetHappinesStepCounter
 0000:020090E4       PlayerSave_SetHappinessStepCounter
 0000:020090EC       PlayerSave_SetAbyssalRuinsStepCounter
 0000:020090F4       PlayerSave_GetAbyssalRuinsStepCounter
 0000:020090FC       PlayerSave_GetPlaceNameZoneID
 0000:02009104       PlayerSave_SetPlaceNameZoneID
 0000:0200910C       PlayerSave_IncrementStepCounter
 0000:02009134       PlayerSave_GetStepCounter
 0000:02009148       PlayerSave_BeginStepCounter
 0000:02009160       PlayerSave_EndStepCounter
 0000:0200916C       PlayerSave_HasStepCounter
 0000:0200919C       getTimeSigBlkAddress
 0000:020091A8       nullsub_13
 0000:02009210       saveSecondsTime
 0000:02009220       loadSecondsTime
 0000:02009258       setBadgeGetSecondsTime
 0000:020092C8       getSizeofAdventureDataBlk
 0000:020092CC       initAdventureDataBlk
 0000:020092E4       getSaveAdventureDataBlk
 0000:020092F0       getSaveAdventureTimeBlock
 0000:020092FC       setAdvTimeBlkRtcOffsetOwnerMacBdayMonthDay
 0000:02009328       hasClockNotBeenTampered
 0000:02009344       getOSBirthdayMonth
 0000:02009348       getOSBirthdayDay
 0000:0200934C       buildAdventureTimeBlk
 0000:02009380       hasFullDayMinutesPassed
 0000:02009390       dayCountdownTest
 0000:020093B0       setNewDayForCountdown
 0000:020093D8       initTrainerCardInfoBlk
 0000:02009408       getTrainerCardInfoBlkAddress
 0000:02009414       EncryptRecordStorage
 0000:02009444       DecryptRecordStorage
 0000:02009464       GetRecordCounter
 0000:02009484       SetRecordCounter
 0000:020094A8       GetRecordCounterMax
 0000:0200955C       RecordAdd
 0000:020095A0       RecordAddOne
 0000:020095AC       RecordGet
 0000:0200965C       ResetMailData
 0000:020096B8       CreateMailData
 0000:020096EC       copyMailMsg
 0000:02009B50       getDreamWorldStuffAddress
 0000:02009B70       dataSize
 0000:02009B78       getUnityTower_SurveySaveBlkAddrress
 0000:02009D34       setPlayerSurveys
 0000:02009D44       getPlayerSurveys
 0000:02009D50       UnityTower_GetVisitorParam
 0000:02009D6E       jpt_2009D6C
 0000:02009DAE       def_2009D6C
 0000:02009E58       UnityTower_GetVisitor
 0000:02009E68       nullsub_40
 0000:02009ED8       getSizeofWifiData
 0000:02009EE0       populateWifiList
 0000:02009F0C       copyWifilist
 0000:02009F1C       initWifi
 0000:02009F6C       ovlNum
 0000:02009F7C       nullsub_41
 0000:0200A5E4       getPalPadFriendListAddress
 0000:0200A96C       length
 0000:0200AA1C       mysteryGiftBlock
 0000:0200ABD4       mgEncryptData
 0000:0200AC28       mgDecryptData
 0000:0200AD14       getAddressOfMusicalDataInfo
 0000:0200AD5C       nullsub_42
 0000:0200AF80       getReshZekBlkAddress
 0000:0200B4D0       nullsub_43
 0000:0200B504       getSizeofTourneyBlock
 0000:0200B530       nullsub_44
 0000:0200B534       loadBattleTypeTextToStrbuf
 0000:0200B558       fileId
 0000:0200B55C       makeStrbufLoadBattleTypeText
 0000:0200B8E4       CRC16_350bytes
 0000:0200BA68       clearTournamentBlock
 0000:0200BA78       getTournamentBlockAddress
 0000:0200BA84       GimmickSave_GetBlockSize
 0000:0200BA88       GimmickSave_Init
 0000:0200BA9C       GimmickState_Reset
 0000:0200BAB4       GimmickState_SetID
 0000:0200BAC4       GimmickState_GetUserData
 0000:0200BAD0       GimmickState_GetID
 0000:0200BAD4       GimmickState_StoreSave
 0000:0200BAEC       GimmickState_LoadSave
 0000:0200BB48       freeVSPlayerBlkClearPtr
 0000:0200BB64       getSizeOfVSPlayer
 0000:0200BB6C       clearVSPlayerBlk
 0000:0200BBA4       clearVSPlayer
 0000:0200C070       __decryptData
 0000:0200C0A0       decryptVSPlayer
 0000:0200C0A8       getVSPlayerAllocation
 0000:0200C260       getBattleBox
 0000:0200C26C       copyPkmIntoBattleBox
 0000:0200C28C       convertBoxedPokeSetToParty
 0000:0200C2F0       copySelectedPkmToBattleBlk
 0000:0200C384       getBoxSlotAddress
 0000:0200C3A8       DayCareSave_SetSpawnFlag
 0000:0200C3B8       DayCareSave_ResetSeed
 0000:0200C3CC       DayCareSave_GetPkm
 0000:0200C3EC       DayCareSave_AddPkm
 0000:0200C428       DayCareSave_DisablePkmStatus
 0000:0200C440       DayCareSave_CheckSpawnFlag
 0000:0200C448       DayCareSave_GetPkmStatus
 0000:0200C458       DayCareSave_GetPkmCount
 0000:0200C478       DayCareSave_GetPkmStepCounter
 0000:0200C48C       DayCareSave_GetSeed
 0000:0200C49C       DayCareSave_GenSeed
 0000:0200C51C       DayCareSave_UpdateStepCount
 0000:0200C56C       getSizeofBreedingBlock
 0000:0200C574       setEggArea
 0000:0200C58C       getDaycareBlockAddress
 0000:0200C598       getSizeofProbabilityTable
 0000:0200C5A0       probability
 0000:0200C5C8       setupProbabilityTable
 0000:0200C62C       getHighLinkBlockAddress
 0000:0200C82C       heapId
 0000:0200C830       getTrainerCardData_wrapper
 0000:0200C838       getTrainerGameInfoAddress
 0000:0200C864       SetFavePokemonData
 0000:0200C97C       isBadgeObtained
 0000:0200C990       addBadge
 0000:0200C9A0       getBadgeCount
 0000:0200C9BC       getCash
 0000:0200C9C0       addCashToTotal
 0000:0200C9E4       subCashFromTotal
 0000:0200C9F8       SetGymDefeatPartyData
 0000:0200CA18       GetGymDefeatPartyData
 0000:0200CACC       getSecondsFromTrainerCardData
 0000:0200CAD4       setSecondsCurrentTimeInTrainerCard
 0000:0200CADC       setToTrainerCardDRTable
 0000:0200CAEC       getOneShotDRKeyFromSave
 0000:0200CB44       ShortcutSave_Init
 0000:0200CB50       SaveControl_GetShortcutSave
 0000:0200CB58       SaveControl_GetShortcutSaveCore
 0000:0200CB64       ShortcutSave_SetKeyItemRegistration
 0000:0200CB98       ShortcutSave_IsRegistered
 0000:0200CBB0       ShortcutSave_GetRegistItem
 0000:0200CBB4       ShortcutSave_GetShortcutCount
 0000:0200CBCC       ShortcutSave_MoveItemToIndex
 0000:0200CC5C       ShortcutSave_Condense
 0000:0200CC9C       nullsub_55
 0000:0200CE58       nullsub_56
 0000:0200CE8C       PML_PkmIsBadMonsNo
 0000:0200CEF0       PML_PkmIsNationalDexExclude
 0000:0200CF10       PML_PkmIsRegionalDexExclude
 0000:0200CF30       getIndexPokemonWithForms
 0000:0200CF64       getIndexNumOfPkmForm
 0000:0200D084       getForm
 0000:0200D15C       getSizeofPokedexData
 0000:0200D164       initPokedex
 0000:0200D184       getPokedexSaveAddress
 0000:0200D190       GameData_GetPokedex
 0000:0200D19C       PokeDex_SetNationalObtained
 0000:0200D1AC       PokeDex_IsNationalObtained
 0000:0200D1B4       PokeDex_EnableHabitatList
 0000:0200D1C0       PokeDex_IsHabitatListEnabled
 0000:0200D1C8       givePlayerPokedex
 0000:0200D220       addToDex
 0000:0200D3A8       getNumberOfForms
 0000:0200D568       addPkmToDex
 0000:0200D660       PokeDex_IsCaught
 0000:0200D694       PokeDex_GetCaughtNo
 0000:0200D6B4       PokeDex_GetCaughtNoNational
 0000:0200D6E0       PokeDex_GetCaughtNoUnova
 0000:0200D72C       PokeDex_RegistPkm
 0000:0200D7F4       PokeDex_IsSeen
 0000:0200D83C       countSeenDexPokes
 0000:0200D85C       PokeDex_GetSeenNoNational
 0000:0200D888       PokeDex_GetSeenNoUnova
 0000:0200DA2C       PokeDex_IsCompleteNational
 0000:0200DA44       PokeDex_IsCompleteUnova
 0000:0200DA5C       PokeDex_IsSeenAllUnova
 0000:0200DA74       PokeDex_GetCaughtNoPermissive
 0000:0200DAAC       PokeDex_GetCaughtNoUnovaPermissive
 0000:0200DB04       PokeDex_GetSeenNoUnovaPermissive
 0000:0200DBDC       PokeDex_GetEvaluationParams
 0000:0200DCEC       EncountSave_GetBlockSize
 0000:0200DCF0       SaveControl_GetEncountSave
 0000:0200DCFC       EncountSave_Init
 0000:0200DD1C       EncountSave_RerollSwarmLocation
 0000:0200DD30       EncountSave_GetSwarmLocation
 0000:0200DD40       EncountSave_GetRoamingPkmZoneClock
 0000:0200DD48       EncountSave_GetRoamingPkmStatus
 0000:0200DD54       EncountSave_GetRoamingPkm
 0000:0200DD5C       EncountSave_GetRoamingPkmParam
 0000:0200DD6C       jpt_200DD6A
 0000:0200DDAA       def_200DD6A
 0000:0200DDB0       EncountSave_SetRepelSteps
 0000:0200DDB8       EncountSave_DecrementRepelSteps
 0000:0200DDE0       EncountSave_IsRepelDepleted
 0000:0200DDF4       EncountSave_GetUsedRepelItemID
 0000:0200DDF8       GetAlreadyCaughtNPokeCount
 0000:0200DE18       IsNPokeAlreadyCaught
 0000:0200DE24       SetNPokeCaught
 0000:0200E358       nullsub_98
 0000:0200E8BC       decryptNpcData
 0000:0200E928       getSizeofNpcData
 0000:0200E930       initNpcData
 0000:0200E948       getAreaNPCData
 0000:0200EF84       getCGearDataBlkAddress
 0000:0200F070       SetTradedPokemonData
 0000:0200F128       UnityTowerSave_GetBlockSize
 0000:0200F12C       UnityTowerSave_Init
 0000:0200F138       UnityTowerSave_Store
 0000:0200F150       UnityTowerSave_Load
 0000:0200F180       nullsub_99
 0000:0200F2C4       getRecordBlkAddress
 0000:0200F2D8       nullsub_100
 0000:0200F6E4       getSizeofHollow_RivalData
 0000:0200F6E8       clearHollowRivalData
 0000:0200F6F4       getHollow_RivalData
 0000:0200F7C0       copyRivalNameIntoHollowBlock
 0000:0200F7D4       getPtrToRivalName
 0000:0200F810       getTypeOfFilledSlot
 0000:0200F830       setSlot
 0000:0200F848       setGroup
 0000:0200F860       setHollowStatus
 0000:0200F87C       isHollowFilled
 0000:0200F88C       getSlotNumber
 0000:0200F8A0       getGroupNumber
 0000:0200F8B4       getHollowGender
 0000:0200F8C8       setHollowGender
 0000:0200F8E4       getHollowNum
 0000:0200F8EC       setHollowNum
 0000:0200F8F4       MedalBox_WriteMedal
 0000:0200F8FC       MedalBox_ReadMedal
 0000:0200F904       MedalInfo_SetStatus
 0000:0200F914       MedalInfo_SetDate
 0000:0200F94C       MedalBox_Init
 0000:0200F970       MedalBox_GetBlockSize
 0000:0200F978       MedalBox_GetMedalStatus
 0000:0200F98C       MedalBox_GiveMedal
 0000:0200F9AC       MedalBox_DiscoverMedal
 0000:0200F9C8       MedalBox_AcknowledgeMedal
 0000:0200F9F4       MedalBox_DiscoverInitialMedal
 0000:0200FA18       MedalBox_SetMedalNotSpecial
 0000:0200FA30       MedalBox_IncrementRank
 0000:0200FA4C       MedalBox_GetRank
 0000:0200FA58       MedalBox_IsMedalSpecial
 0000:0200FA68       MedalBox_GetMedalDate
 0000:0200FA90       MedalBox_GetNextRankRequirement
 0000:0200FAA6       jpt_200FAA4
 0000:0200FAC4       def_200FAA4
 0000:0200FAC8       MedalBox_GetObtainedCount
 0000:0200FB40       SaveControl_GetMedalBox
 0000:0200FB54       ActorSave_GetBlockSize
 0000:0200FB5C       ActorSave_Init
 0000:0200FB70       ActorSave_Save
 0000:0200FBB8       ActorSave_Load
 0000:0200FBE4       ActorSave_SaveActor
 0000:0200FC84       ActorSave_LoadActor
 0000:0200FDD8       ActorSave_IterateSaveActor
 0000:0200FE10       ActorSave_IterateLoadActor
 0000:0200FE34       GetIndexOfObjID
 0000:0200FF40       getHollow_RivalBlk
 0000:02010044       SaveControl_GetJoinAvenue
 0000:02010050       nullsub_6
 0000:02010060       getAddressOfBeginningOfOccupants
 0000:0201006C       JoinAvenue_GetInfo
 0000:02010268       getKeyDataBlkAddress
 0000:0201046C       nullsub_97
 0000:020104A4       getKeyInfoSaveBlk
 0000:020104F4       keyEnabler
 0000:02010514       SetGameDifficulty
 0000:02010528       GetGameDifficulty
 0000:020105C8       clearPokewoodBlock
 0000:020105D0       size
 0000:020105D8       getSizeOfPokewoodBlock
 0000:020105E0       allocatePokewoodBlk
 0000:02010600       freeAndClearPokewoodBlk
 0000:02010614       savePokewoodBlk
 0000:0201062C       setPokewoodBlk
 0000:020106AC       loadPokewoodAndCheck
 0000:020106E8       arcId
 0000:020107E4       getPokewoodBlock
 0000:020108CC       zero476Bytes
 0000:020112FC       getDreamRadarSaveSize
 0000:02011300       initDreamRadarSave
 0000:02011314       GetDreamRadarFlag
 0000:02011334       SetDreamRadarFlag
 0000:02011350       GetDreamRadarSaveBlock
 0000:0201135C       getNextSeed
 0000:0201137C       ValidateDreamRadarSave
 0000:0201142C       GetSurveyAnswerMsgID
 0000:0201143C       GetSurveyAnswerMsgIDCount
 0000:020114EC       msgNum
 0000:0201150C       nullsub_101
 0000:02011530       ReadDreamRadarSaveData
 0000:02011590       IsDreamRadarSaveValid
 0000:020116AC       getWifiIconNarcIdxNum
 0000:020116D2       jpt_20116D0
 0000:02011758       def_20116D0
 0000:02011BFC       GFL_NetHeapInit
 0000:02011C1C       GFL_NetErrInit
 0000:02011CFC       GFL_NetErrShow
 0000:02011D3E       jpt_2011D3C
 0000:02011D80       def_2011D3C
 0000:02012028       GFL_NetErrAbort
 0000:02012038       GFL_NetErrAbortCore
 0000:02012110       AssertFailErrorDisp
 0000:020121B0       GFL_NetErrShowCore
 0000:020122DC       GFL_NetErrDispInit
 0000:02012460       GFL_NetErrRestore
 0000:020125F8       GFL_NetErrIsReady
 0000:0201260C       loadErrorBackground
 0000:02012714       jpt_2012712
 0000:02012738       def_2012712
 0000:02012778       GFL_NetErrDispMessage
 0000:020128E4       value
 0000:020128EC       charCount
 0000:020128F0       colorIndices
 0000:020128F4       GFL_NetErrGameUpdate
 0000:02012DEC       setupDownloadPlayConfig
 0000:02012E28       downloadPlayConfigForWifi
 0000:02012EDC       nullsub_102
 0000:02013136       jpt_2013134
 0000:020131D4       def_2013134
 0000:020131F0       freeMemResetSystem
 0000:0201340C       PassPower_Init
 0000:02013424       PassPower_Update
 0000:0201344C       PassPower_DeactivateAllEffects
 0000:0201346C       PassPower_IsIDInvalid
 0000:02013488       PassPower_IsIDValid
 0000:0201349C       PassPower_IsBW1Compatible
 0000:020134B8       PassPower_GetSPowerBaseID
 0000:020134CC       PassPower_Activate
 0000:02013560       PassPower_GetUsedIDByPassPower
 0000:02013574       PassPower_GetUsedIDByEffect
 0000:02013580       PassPower_GetRemainingSeconds
 0000:020135AC       PassPower_GetDepletedID
 0000:020135D4       PassPower_Deactivate
 0000:020135E4       PassPower_DeactivateEffect
 0000:0201361C       PassPowerData_Create
 0000:0201362C       PassPowerData_Free
 0000:02013634       PassPowerData_GetEffect
 0000:02013640       PassPowerData_GetPrice
 0000:02013650       PassPower_ApplyEncounter
 0000:0201368C       PassPower_ApplyHatch
 0000:020136A8       PassPower_ApplyBefriend
 0000:020136C0       PassPower_ApplyBargain
 0000:020136DC       PassPower_ApplyHPRestore
 0000:02013758       PassPower_ApplyPPRestore
 0000:020137F0       PassPower_ApplyEXP
 0000:0201381C       PassPower_ApplyPrizeMoney
 0000:02013838       PassPower_ApplyCapture
 0000:0201385C       PassPower_ApplyExploring
 0000:02013878       PassPower_ApplyExploringChance
 0000:020138A0       PassPower_ApplyGrotto
 0000:020138C8       PassPower_ApplyGrottoVolume
 0000:020138E0       PassPower_ApplyLuckyEncProb
 0000:020138F8       PassPower_ApplyLuckyShiny
 0000:02014136       jpt_2014134
 0000:02014190       def_2014134
 0000:02014498       CreateLinkFestival
 0000:02014580       getStatusOfFesMission
 0000:0201458C       GetFestMissionCfg
 0000:0201471C       FetchFestMissionCfgGimmickID
 0000:020147C4       LinkFestival_GetNormalChangeBGMID
 0000:02014AE4       SetFesGimmickResidentEnable
 0000:02014B58       ClearLinkFestivalData
 0000:02014D1C       allocateForFestMission
 0000:02014D40       ClearFesMissionCfg
 0000:02014DBC       UpdateFesMissionConfigSecondsTime
 0000:02014E64       isFesMissionAvailable
 0000:02014E90       jpt_2014E8E
 0000:02014EDC       def_2014E8E
 0000:02015878       getGameVersion
 0000:0201587C       VM_Reset
 0000:020158AC       VM_Create
 0000:020158F8       VM_Free
 0000:02015900       VM_ChangeEnv
 0000:02015910       VM_LoadScript
 0000:02015924       VM_Halt
 0000:0201592C       VM_Run
 0000:020159DC       VM_GetEnv
 0000:020159E0       VM_SetCallbackVerifier
 0000:020159E8       VM_Read16
 0000:02015A04       VM_Read32
 0000:02015A34       VM_StackPush
 0000:02015A50       VM_StackPop
 0000:02015A68       VM_Jump
 0000:02015A6C       VM_Call
 0000:02015A7C       VM_Return
 0000:02015A88       VM_SetNativeCallback
 0000:02015A90       GetRealTimeDayPeriod
 0000:02015AA8       GetDayPeriod
 0000:02015AB8       GetLightChangeHoursForSeasons
 0000:02015AC8       IsDayPeriodNight
 0000:02015AE0       GFL_G3DCurveCreateToLoadBufferEntire
 0000:02015B34       GFL_G3DCurveCreateToLoadBuffer
 0000:02015B88       GFL_G3DCurveLoadFileAll
 0000:02015BC8       GFL_G3DCurveLoadFileStream
 0000:02015C10       GFL_G3DCurveFree
 0000:02015C48       GFL_G3DCurveFrameStepLoop
 0000:02015C78       GFL_G3DCurveFrameStep
 0000:02015CAC       GFL_G3DCurveFrameSet
 0000:02015CC8       GFL_G3DCurveGetFrameCount
 0000:02015CCC       GFL_G3DCurveGetNowFrame
 0000:02015CD0       GFL_G3DCurveGetNowTranslation
 0000:02015CF8       GFL_G3DCurveGetNowRotation
 0000:02015D20       GFL_G3DCurveGetNowTranslationLoop
 0000:02015D58       GFL_G3DCurveGetNowRotationLoop
 0000:02015D98       GFL_G3DCurveGetNowScaleLoop
 0000:02015DD8       GFL_G3DCurveReset
 0000:02015DF8       GFL_G3DCurveLoadHeader
 0000:02015E88       GFL_G3DCurveAllocPreload
 0000:02015EF4       GFL_G3DCurveSetLoadBuffer
 0000:02015F58       GFL_G3DCurvePreloadFrames
 0000:020162A4       GFL_G3DCurveApplyCamera
 0000:02016408       GFL_G3DCurveApplyCameraPosTranslation
 0000:02016424       GFL_G3DCurveApplyCameraTgtTranslation
 0000:0201666C       get_mt
 0000:020166D0       nullsub_96
 0000:020166D4       GameSystem_Init
 0000:02016874       GameSystem_MainLoop
 0000:02016888       GameSystem_End
 0000:020168B4       GameSystem_CreateProcData
 0000:020168F0       GSYS_Create
 0000:02016960       GSYS_Free
 0000:0201698C       SetupGameSystem
 0000:020169A8       GSYS_Update
 0000:02016A6C       GSYS_Terminate
 0000:02016A80       GSYS_SetEventProvider
 0000:02016A88       GSYS_UpdateEventRunningFlag
 0000:02016A98       GSYS_QueueProc
 0000:02016AA4       GSYS_StartFieldmapProc
 0000:02016ABC       GSYS_GetEventRunningFlag
 0000:02016AD4       GSYS_GetProcMgrState
 0000:02016AD8       GSYS_GetGameData
 0000:02016ADC       GSYS_GetPlayerState
 0000:02016AE8       GSYS_GetNowEvent
 0000:02016AEC       GSYS_SetNowEvent
 0000:02016AF0       GSYS_GetField
 0000:02016AF4       GSYS_SetField
 0000:02016AF8       GSYS_CheckField
 0000:02016B08       GSYS_GetLinkFestival
 0000:02016B1C       GameSystem_GetISS
 0000:02016B20       GSYS_GetGameCommSystem
 0000:02016C3C       GSYS_SetupUICallback
 0000:02016CB4       GameEvent_Create
 0000:02016CF8       GameEvent_RunCallback
 0000:02016D08       GameEvent_Free
 0000:02016D20       GameEvent_Transplant
 0000:02016D50       GameEvent_Replace
 0000:02016D68       GameEvent_ChainNext
 0000:02016D74       GSYS_UpdateEvents
 0000:02016DB8       GSYS_CheckNowEvent
 0000:02016DCC       GSYS_FeedEventsFromProvider
 0000:02016E00       EventProcessCall_Callback
 0000:02016E38       GSYS_QueueProcAsEvent
 0000:02016E68       EventCallOverlayDelegateEvent_Callback
 0000:02016EA0       GameEvent_CreateOverlayDelegate
 0000:02016ED8       GameEvent_GetGameSystem
 0000:02016EDC       GameEvent_GetData
 0000:02016EE0       GameEvent_GetStatePtr
 0000:02016EE4       GameEvent_GetReturnEvent
 0000:02016EE8       GameData_Create
 0000:02017144       GameData_Free
 0000:020171F4       GameData_GetPlayerState
 0000:02017240       GameData_GetEventData
 0000:02017248       GetGameDataNowSpawnZone
 0000:02017250       SetGameDataNowSpawnZone
 0000:0201726C       GetOutboundWarpRememberSpawnInfo
 0000:02017274       SetGameDataOutboundWarpRememberInfo
 0000:02017290       GameData_GetNextZone
 0000:02017298       GameData_SetNextZone
 0000:020172B4       GameData_GetEscapeRopeZone
 0000:020172BC       GameData_SetEscapeRopeZone
 0000:020172D8       GameData_GetEntralinkParentSpawnInfo
 0000:020172E0       GameData_SetEntralinkParentSpawnInfo
 0000:020172FC       SetCurrentTeleportOrDeathZone
 0000:02017310       GetReturnLocationIdx
 0000:02017354       GameData_GetBag
 0000:0201735C       GameData_GetParty
 0000:02017364       GameData_GetBoxSaveAccessor
 0000:0201736C       GetGameDataPlayerInfo
 0000:02017384       GameData_GetBGMInfo
 0000:0201738C       GameData_GetMMSys
 0000:02017394       GameData_GetEventWork
 0000:0201739C       GetMapMatrixSystem
 0000:020173A4       GetCalendar
 0000:020173AC       GameData_GetSeason
 0000:020173B4       GameData_SetSeason
 0000:020173BC       GetNowWeather
 0000:020173C8       SetNowWeather
 0000:020173D4       GameData_GetLastSubscreen
 0000:020173E0       GameData_SetLastSubscreen
 0000:02017438       GameData_Set30FPSMode
 0000:0201744C       GameData_ResetSkipFrame
 0000:02017458       GameData_Is30FPSSkipFrame
 0000:02017480       GameData_Is30FPSMode
 0000:0201748C       getCurrentStepTotal
 0000:02017494       setCurrentStepTotal
 0000:0201749C       GameData_GetFieldSoundSystem
 0000:020174A4       GameData_GetEncountState
 0000:020174AC       GameData_GetLastBtlResult
 0000:020174B4       GameData_SetLastBtlResult
 0000:0201750C       PlayerState_SetWPos
 0000:0201751C       PlayerState_GetWPos
 0000:02017520       PlayerState_SetRailPos
 0000:02017534       PlayerState_GetRailPos
 0000:02017538       PlayerState_SetIsRail
 0000:02017540       PlayerState_SetZoneID
 0000:02017544       PlayerState_GetZoneID
 0000:02017548       PlayerState_SetRotation
 0000:02017550       PlayerState_SetRotationByDir
 0000:02017560       PlayerState_CalcDirection
 0000:020175A4       FieldPlayerState_GetExState
 0000:020175A8       SetPlayerSpecialState
 0000:020175AC       FieldPlayerState_SetObjCode
 0000:020175B0       FieldPlayerState_GetObjCode
 0000:020175B4       GameData_GetFieldStatus
 0000:020175E4       GameData_IsForceSeasonSync
 0000:020175F0       GameData_SetForceSeasonSync
 0000:02017644       GameData_SetKeyItemRegistration
 0000:0201765C       GameData_IsShortcutRegistered
 0000:02017678       GameData_LoadBackup
 0000:02017750       GameData_SaveBackup
 0000:020178BC       GameData_CheckEventsPaused
 0000:02017934       GameData_GetSaveControl
 0000:02017938       GameData_GetSaveControl_
 0000:0201793C       GameData_GetGimmickState
 0000:02017974       getTrainerCardDataBlkAddress
 0000:02017994       GameData_GetRecords
 0000:020179A0       GameData_GetUnityTowerSave
 0000:020179A8       getMusicalInfoBlkAddress
 0000:020179B4       GetTrialHouseWkPPtr
 0000:020179BC       getTimeSigSaveBlock
 0000:02017A0C       getChatterDataAddress
 0000:02017A30       GameData_UpdateTime
 0000:02017A48       GetFieldFollowerCfg
 0000:02017A50       GetTradedPokemonBlock
 0000:02017A5C       getConstDataBlock
 0000:02017A68       GetScrPluginNo
 0000:02017A70       SetScrPluginNo
 0000:02017B14       GameData_GetLensFlareEntryIdx
 0000:02017B1C       GameData_SetLensFlareEntryIdx
 0000:02017B24       GameData_IsLensFlareRequested
 0000:02017B2C       GameData_SetLensFlareRequested
 0000:02017BC0       saveMainSaveAreaAddress
 0000:02017C60       BtlSetup_Create
 0000:02017C84       BtlSetup_Free
 0000:02017C94       BtlSetup_Reset
 0000:02017D10       BtlSetup_GetParty
 0000:02017D18       BtlSetup_SetFlag
 0000:02017D28       BtlSetup_CheckFlag
 0000:02017DDC       ResetBtlFieldStatus
 0000:02017E04       TrainerBattleSetup_Create
 0000:02017E54       BtlSetup_LoadTrainer
 0000:02017EC6       jpt_2017EC4
 0000:02017EFE       def_2017EC4
 0000:02017F14       BtlSetup_LoadPlayerParty
 0000:02017F38       BtlSetup_LoadGameData
 0000:0201805C       eventNum
 0000:02018060       BtlSetup_SetWildNormal
 0000:020180D8       BtlSetup_SetWildMulti
 0000:02018170       BtlSetup_LoadTrainerBase
 0000:020181A4       BtlSetup_SetNetImpl
 0000:0201823C       BtlSetup_SetCaptureDemo
 0000:0201828C       BtlSetup_SetTrainer1v1Single
 0000:020182C0       BtlSetup_SetTrainer1v1Double
 0000:020182F4       BtlSetup_SetTrainer3v3
 0000:02018328       BtlSetup_SetTrainerRotation
 0000:0201835C       BtlSetup_SetTrainer1v2
 0000:020183B0       BtlSetup_SetTrainer2v2
 0000:0201840C       BtlSetup_SetNet1v1Single
 0000:0201843C       BtlSetup_SetNet1v1Double
 0000:0201846C       BtlSetup_SetNetMultiVsNet
 0000:0201848C       BtlSetup_SetNetMultiVsAI
 0000:020184E0       BtlSetup_SetNetTriple
 0000:02018510       BtlSetup_SetNetRotation
 0000:020185D0       adjustPkmLvForChallengeKeys
 0000:0201867C       BtlSetup_PostProcessTrialHouse
 0000:020186E0       InitZoneDataSystem
 0000:02018784       ppZONEDATA_SYSTEM
 0000:02018790       FreeZoneDataSystem
 0000:020187C8       SetAllowVersionSpecificZone
 0000:020187DC       SetAllowVersionSpecificArea
 0000:020187EC       GetVersionedMapChangeZoneNum
 0000:02018828       GetVersionedMapChangeZoneNum2
 0000:02018830       ZoneData_GetHeaderCore
 0000:02018878       ZoneData_GetHeader
 0000:02018884       IsZoneIDArrayContainsZoneID
 0000:020188AC       ZoneData_GetAreaID
 0000:020188F0       GetZoneMatrixId
 0000:020188FC       GetZoneMapType
 0000:02018908       ZoneData_GetScriptDatID
 0000:02018914       ZoneData_GetTextDatID
 0000:02018920       LoadZoneFlyPosToVecFx32
 0000:0201893C       LoadZoneFlyPosRailCoords
 0000:02018954       ZoneData_GetObjectProjectionMatrixType
 0000:02018968       GetZoneDefaultCameraIndex
 0000:0201897C       GetZoneMatrixCamBoundIdx
 0000:02018988       DecideZoneHeaderBGMID
 0000:020189C8       GetZoneEnvFlagsWeather
 0000:020189D8       GetZoneFlagsEnableCycling
 0000:020189E8       GetZoneFlagsEnableCycleSurfBGM
 0000:020189F8       GetZoneFlagsEnableFlyFrom
 0000:02018A08       GetZoneFlagsEnableEscapeRope
 0000:02018A18       GetZoneFlagsEnableEntralinkWarp
 0000:02018A28       IsZonesWithRailsArrayHasZoneID
 0000:02018A38       GetZoneHasRailSystem
 0000:02018A54       GetRailIDForZone
 0000:02018A80       GetZoneIsUnionRoom
 0000:02018A98       IsZone150Or151
 0000:02018AB8       IsZoneLEQ76
 0000:02018AD8       GetZoneIsPWTBattleStage
 0000:02018AEC       IsZoneRoyalUnova
 0000:02018B00       IsZoneBlackTowerOrWhiteTreehollow
 0000:02018B24       GetZoneIsHiddenGroto
 0000:02018B64       IsZoneEntralinkHub
 0000:02018B7C       GetZoneIsEntralinkAny
 0000:02018BA4       GetZoneIsEntreeForest
 0000:02018BC0       IsZoneEntralinkEdgeColorTable
 0000:02018BD8       IsZoneFlashbackMemoryPostFX
 0000:02018C18       IsZoneBlackCityOrWhiteForestLobby
 0000:02018C28       IsZoneJoinAvenue
 0000:02018C50       GetZoneIsMusicalTheater
 0000:02018CA0       GetZoneParentZone
 0000:02018CAC       ZoneData_GetPlaceNameID
 0000:02018CCC       GetZoneLocationNameIdx
 0000:02018CF8       GetZoneLocNameDispType
 0000:02018D08       GetZoneEasyChallengeModeLevelAdjust
 0000:02018D18       GetZoneNameIcon
 0000:02018D28       GetIsZoneMatrix0
 0000:02018D3C       GetZoneEncID
 0000:02018D4C       GetZoneEncIDHighest3Bits
 0000:02018D5C       GetZoneEntitiesID
 0000:02018D68       GetZoneBattleBGID
 0000:02018D7C       GetZoneFogIndex
 0000:02018DBC       GetZoneStaticLightDataIndex
 0000:02018DFC       GetZoneFlashFlags
 0000:02018E38       GetCameraIDForZone
 0000:02018E68       GetMapTransitionEffectType
 0000:02018E7C       IsZoneAbyssalRuinsOutside
 0000:02018E8C       IsZoneAbyssalRuinsInside
 0000:02018E9C       IsZoneAbyssalRuinsFlashRock
 0000:02018EA8       IsZoneAbyssalRuinsStrengthRock
 0000:02018EB4       IsZoneNimbasaStadium
 0000:02018EC4       IsMetLocationEntralink
 0000:02018ED4       GetIsZoneRoute14Or15
 0000:02018EEC       GetZoneNPCInfoCacheIdx
 0000:02018F10       AreaData_Create
 0000:02018F3C       AreaData_Free
 0000:02018F44       AreaData_GetPropBundleID
 0000:02018F48       AreaData_GetTexSetID
 0000:02018F4C       AreaData_GetSRTAnmID
 0000:02018F58       AreaData_GetPatAnmID
 0000:02018F64       AreaData_IsExterior
 0000:02018F68       AreaData_GetLightsID
 0000:02018F6C       AreaData_GetEdgeColorTableID
 0000:02018F70       AreaData_GetActorMatColorID
 0000:02018F74       AreaData_HasSeasons
 0000:02018FE8       InitZoneSpawnInfo
 0000:02019000       SetupZoneWarpArrivalGrid
 0000:02019024       SetupZoneWarpArrivalRail
 0000:0201905C       SetupZoneSpawnInfoWarp
 0000:02019074       CreateZoneChangeData
 0000:020190CC       GetZoneSpawnInfoIsRail
 0000:020190D0       GetPlayerZoneStateWPos
 0000:020190E0       SetPlayerZoneStateWPos
 0000:020190F4       LoadZoneSpawnInfoCheckRail
 0000:02019154       LoadAspertiaCitySpawnInfo
 0000:0201915C       zoneId
 0000:02019164       ConvWarpDirToDir
 0000:02019174       jpt_2019172
 0000:0201918E       def_2019172
 0000:02019194       ConvDirToWarpDir
 0000:020191A4       jpt_20191A2
 0000:020191BC       def_20191A2
 0000:020191C0       EventWork_GetBlockSize
 0000:020191C8       EventWork_Init
 0000:020191D8       EventWork_FlagGet
 0000:02019204       EventWork_FlagSet
 0000:0201922C       EventWork_FlagReset
 0000:02019258       EventWork_FlagResetRange
 0000:02019278       EventWork_GetFlagBytePtr
 0000:020192C0       EventWork_GetWkPtr
 0000:020192CC       EventWork_WorkResetRange
 0000:020192E4       EventWork_ResetDailyFlags
 0000:02019300       EventWork_GetHiddenItemRespawnFlag
 0000:02019310       ConvDirToRailDir
 0000:0201931C       FieldStatus_Create
 0000:02019338       FieldStatus_Free
 0000:02019348       FieldStatus_SetNewLoadFlag
 0000:0201934C       FieldStatus_GetNewLoadFlag
 0000:02019350       FieldStatus_SetContinueFlag
 0000:02019354       FieldStatus_CheckContinueFlag
 0000:02019358       FieldStatus_SetFlashUsed
 0000:0201935C       FieldStatus_CheckFlashUsed
 0000:02019360       FieldStatus_SetFlashPerms
 0000:02019364       FieldStatus_GetFlashPerms
 0000:02019368       FieldStatus_ReserveScript
 0000:0201936C       FieldStatus_GetReserveScript
 0000:02019370       FieldStatus_SetBusyFlag
 0000:02019378       FieldStatus_GetBusyFlag
 0000:0201937C       EventFieldClose_Callback
 0000:020193D0       CreateFieldCloseEvent
 0000:02019400       EventFieldCloseKeepSound_Callback
 0000:02019448       EventFieldCloseKeepSound_Create
 0000:02019478       EventFieldOpen_Callback
 0000:020194C0       EventFieldOpen_CreateHeadless
 0000:020194F0       EventFieldOpen_Create
 0000:0201951C       EventFieldSubprocessTransition_Callback
 0000:0201953A       jpt_2019538
 0000:02019586       def_2019538
 0000:0201958C       EventFieldSubprocessCall_Callback
 0000:020195A8       jpt_20195A6
 0000:020195E8       def_20195A6
 0000:020195EC       EventFieldSubprocessTransition_Create
 0000:0201961C       EventFieldSubprocessCall_Create
 0000:0201976C       EventPokeList_Callback
 0000:02019786       jpt_2019784
 0000:020197F0       def_2019784
 0000:02019804       EventPokeList_Create
 0000:0201992C       Normalize060File
 0000:0201A870       l
 0000:0201B2CC       LoadMCSSGraphicsData
 0000:0201B824       callbackFunc
 0000:0201C01C       SetupPokemonLoaderByBoxData
 0000:0201C070       SetupPokemonLoaderFSTool
 0000:0201C11C       GetTrainerSpriteResIDs
 0000:0201C2D8       PML_PersonalInit
 0000:0201C2F0       PML_GetPkmRawSize
 0000:0201C2F4       PokeParty_GetPkmRawSize
 0000:0201C2F8       PokeParty_NewTempPkm
 0000:0201C338       PokeParty_NewPkm
 0000:0201C384       boxPkmRegenToPartyPkm
 0000:0201C430       PokeParty_ClearPkm
 0000:0201C458       PML_PkmInit
 0000:0201C474       PokeParty_CreateTempPkm
 0000:0201C490       PokeParty_CreatePkm
 0000:0201C508       PML_CreateTempPkm
 0000:0201C524       PML_CreatePkm
 0000:0201C7D8       strbuf
 0000:0201C7E0       setChangedPkmSpecies
 0000:0201C808       setNameChangedPkm
 0000:0201C890       PokeParty_ChangeForme
 0000:0201C8C0       PML_PkmChangeForme
 0000:0201C928       PML_PkmChangeRotomForme
 0000:0201CA2C       hatchEgg
 0000:0201CA54       fillDataForHatchedEgg
 0000:0201CAD0       shuffleMovesUpWriteLastSlot
 0000:0201CB58       setAbilityForForm
 0000:0201CBD0       UpdateGenderOnMonsChange
 0000:0201CC38       PokeParty_DecryptPkm
 0000:0201CC78       PokeParty_EncryptPkm
 0000:0201CCC4       PML_PkmDecrypt
 0000:0201CCEC       PML_PkmReEncrypt
 0000:0201CD24       PokeParty_GetParam
 0000:0201CD48       PokeParty_SetParam
 0000:0201CD6C       PML_PkmSetParam
 0000:0201CD90       setPkmBattleData
 0000:0201CDB4       PML_PkmGetParam
 0000:0201CDD8       PokeParty_IsRare
 0000:0201CDE0       PML_PkmIsRare
 0000:0201CE04       PML_UtilPIDIsRare
 0000:0201CE2C       isKyuremTransformed
 0000:0201CE44       isKamiTrioTransformed
 0000:0201CE68       isKeldeoTransformed
 0000:0201CE80       isNewFormTransformed
 0000:0201CEB8       hasPokemonChangedForm
 0000:0201CEE0       PokeParty_GetSex
 0000:0201CEE8       PML_PkmGetSex
 0000:0201CF30       PML_UtilDerivePkmSex
 0000:0201CF70       get_unused_stat
 0000:0201CF7C       getParentAbilSlotNumber
 0000:0201CF84       getPkmAbilSlotNumber
 0000:0201CFF8       PokeParty_SetStatusCond
 0000:0201D004       PokeParty_SetDefaultMoves
 0000:0201D00C       PML_UtilPkmSetDefaultMoves
 0000:0201D0E0       pFil
 0000:0201D0E8       PokeParty_LearnMove
 0000:0201D0F0       PML_PkmLearnMove
 0000:0201D150       PokeParty_SetLastMove
 0000:0201D158       PML_PkmSetLastMove
 0000:0201D1F4       PokeParty_PPRecover
 0000:0201D1FC       PML_PkmPPRecover
 0000:0201D250       PokeParty_SetMove
 0000:0201D258       PML_PkmSetMove
 0000:0201D48C       PokeParty_GetLevel
 0000:0201D494       PML_PkmGetLevel
 0000:0201D4E4       PML_UtilCheckForeignOT
 0000:0201D568       CalcLevelByExp
 0000:0201D5A0       getExpForPkm_Wrapper
 0000:0201D5A8       getExpForPkm
 0000:0201D5E0       PML_UtilGetPkmLvExp
 0000:0201D5F4       PokeParty_GetNature
 0000:0201D5FC       PML_PkmGetNature
 0000:0201D60C       PokeParty_SetNature
 0000:0201D620       PokeParty_RecalcStats
 0000:0201D64C       nullsub_14
 0000:0201D650       nullsub_28
 0000:0201D654       getGenderValue
 0000:0201D688       makeSpecialPID
 0000:0201D724       PML_GenPID
 0000:0201D7EC       getHiddenPowerType
 0000:0201D87C       getHiddenPowerBasePwr
 0000:0201D908       canPkmLearnTM_Wrapper
 0000:0201D910       canPkmLearnTM
 0000:0201D93C       isTMValidForPkm
 0000:0201D978       PokeParty_CheckMoveTutorNormal
 0000:0201D9A4       PML_UtilCheckMoveTutorNormal
 0000:0201D9D8       PokeParty_CheckMoveTutorPaid
 0000:0201DA08       PML_UtilCheckMoveTutorPaid
 0000:0201DA3C       PokeParty_CheckAnyRibbon
 0000:0201DA90       doesNatureAffectStat
 0000:0201DA98       isStatAdjustedByPokeNature
 0000:0201DAB0       isStatAdjustedForNature
 0000:0201DAC0       PokeParty_SetHiddenAbil
 0000:0201DAC8       PML_PkmSetHiddenAbil
 0000:0201DB3C       PokeParty_RecalcStatsCore
 0000:0201DDD0       PokeParty_PkmDecryptCheck
 0000:0201DDF4       PML_PkmDecryptCheck
 0000:0201DE2C       PokeParty_PkmEncrypt
 0000:0201DE4C       PML_PkmEncryptForce
 0000:0201DE74       PokeParty_GetParamCore
 0000:0201DE8A       jpt_201DE88
 0000:0201DEF4       PML_PkmGetParamCore
 0000:0201DF46       jpt_201DF44
 0000:0201E3D0       msgID
 0000:0201E3D8       PokeParty_SetParamCore
 0000:0201E3F0       jpt_201E3EE
 0000:0201E450       def_201E3EE
 0000:0201E458       PML_PkmSetParamCore
 0000:0201E4A4       jpt_201E4A2
 0000:0201EB28       def_201E4A2
 0000:0201EB3C       writePkmBattleData
 0000:0201EB52       jpt_201EB50
 0000:0201EB9E       def_201EB50
 0000:0201EBFE       jpt_201EBFC
 0000:0201ECF2       def_201EBFC
 0000:0201ED08       PML_CryptoRun
 0000:0201ED34       PML_CryptoNextKey
 0000:0201ED54       PML_CryptoGenKey
 0000:0201ED74       PML_PkmIsNicknamed
 0000:0201EDBC       adjustStatForNature
 0000:0201EDFC       statAffectedByNature
 0000:0201EE10       setNicknameToNick
 0000:0201EE1C       setNameToNick
 0000:0201EE4C       PML_GrowTblRead
 0000:0201EE5C       PML_GrowTblGetLvExp
 0000:0201EE74       PML_ItemGetArceusPlateType
 0000:0201EE88       jpt_201EE86
 0000:0201EEE8       def_201EE86
 0000:0201EEF0       PML_PkmGetParamBlockCore
 0000:0201EF0C       PML_PersonalLoadBW2
 0000:0201EF30       pBuf
 0000:0201EF34       GetPersonalAbilCount
 0000:0201EF48       PML_PersonalGetParamSingle
 0000:0201EF58       setLevel
 0000:0201EF98       copyPartyPkm
 0000:0201EFB0       _getTypeForPlate
 0000:0201EFCA       jpt_201EFC8
 0000:0201EFE2       def_201EFC8
 0000:0201EFE8       PML_PkmSanitizeForme
 0000:0201F070       PML_PersonalLoadBW1
 0000:0201F098       PML_PersonalGetParamSingleBW1
 0000:0201F0A8       PML_PkmIsLegendNational
 0000:0201FD24       PokeParty_GetSaveDataSize
 0000:0201FD2C       PokeParty_Create
 0000:0201FD4C       blockLength
 0000:0201FD54       PokeParty_Init
 0000:0201FD60       PokeParty_InitCore
 0000:0201FD98       PokeParty_AddPkm
 0000:0201FDD4       PokeParty_RemovePkm
 0000:0201FE20       PokeParty_GetCapacity
 0000:0201FE24       PokeParty_GetPkmCount
 0000:0201FE28       howManyPartyPokesAreNotEggs
 0000:0201FE5C       howManyPokesAreAbleToFight
 0000:0201FE94       countAllEggsInParty
 0000:0201FEE0       countSanityEggsInParty
 0000:0201FF14       PokeParty_GetFirstBattleReady
 0000:0201FF24       isEggInParty
 0000:0201FF34       PokeParty_GetPkm
 0000:0201FF40       copyPkmIntoPartyBlk
 0000:0201FF84       PokeParty_SwapPkms
 0000:020200D8       PokeParty_Copy
 0000:020200F0       CheckSpeciesInParty
 0000:0202012C       countActivePkms
 0000:02020170       PokeParty_GetSlotExists
 0000:02020188       PokeParty_SetSlotExists
 0000:020201B8       SaveControl_GetPokePartySave
 0000:020201C4       PML_PkmIsBattleReady
 0000:020201EC       PML_PkmIsEgg
 0000:02020204       PokeParty_FindMemberCore
 0000:02020234       PML_PersonalArcInit
 0000:02020260       PML_PersonalFetchBW2
 0000:0202028C       PML_LearnsetLvUpLoad
 0000:020202A0       PML_PersonalLoad
 0000:020202D0       PML_PersonalFree
 0000:020202D8       PML_PersonalGetParam
 0000:020202EA       jpt_20202E8
 0000:0202043A       def_20202E8
 0000:02020440       isGenderlessOrSetGender
 0000:02020454       PML_PersonalLoadRegionalDexTable
 0000:020204A4       datId
 0000:020204AC       PML_PersonalGetDatID
 0000:02020510       PML_PersonalFetchBW1
 0000:0202053C       pokerusHandler
 0000:02020604       pokerusDecay
 0000:02020674       pokerusSpread
 0000:02020724       pokerusBitmaskForPartyPKM
 0000:02020760       pokerusDuration
 0000:0202076C       doesPokerusHaveDuration
 0000:02020784       pokeHasPkrs
 0000:02020790       doesPokeHavePokerus
 0000:020207B4       CheckEvolveSpecies
 0000:02020884       jpt_2020882
 0000:020208D8       jpt_20208D6
 0000:02020978       def_20208D6
 0000:02020C04       def_2020882
 0000:02020C10       loadEvolutionFile
 0000:02020C68       getEvolutionInfoFile
 0000:02020C78       CheckPokeMoveLearned
 0000:02020CF0       happinessAdd
 0000:02020D18       pHappiness_add
 0000:02020D54       happinessIncrement
 0000:02020E24       PokeParty_CheckPPNeedsReplenish
 0000:02020E74       PokeParty_AddPP
 0000:02020EF4       PokeParty_Recover
 0000:02020F38       PokeParty_RecoverAll
 0000:020211BC       getOBJTileMapping_MainEng
 0000:020211F4       getOBJTileMapping_SubEng
 0000:020212AC       PML_MoveGetParam
 0000:02021334       p_file
 0000:02021338       PML_MoveGetParamCore
 0000:02021348       jpt_2021346
 0000:02021438       def_2021346
 0000:0202143C       getMoveFlag
 0000:020215A4       PML_MoveGetStatChangeStat
 0000:02021640       PML_MoveGetStatChangeStage
 0000:020216DC       PML_MoveGetMaxPP
 0000:02021740       PML_MoveGetQuality
 0000:0202174C       PML_MoveGetType
 0000:0202175C       PML_MoveGetBasePower
 0000:0202176C       PML_MoveGetCategory
 0000:02021778       PML_MoveIsAlwaysHit
 0000:02021808       PML_MoveIsAlwaysCrit
 0000:02021898       PML_MoveIsDamaging
 0000:020218AC       PML_MoveInitDataCache
 0000:02021944       PML_MoveFreeDataCache
 0000:0202198C       PML_MoveIsDataCachePresent
 0000:020219A0       GFL_TextRndInit
 0000:020219BC       terminator
 0000:02021D28       GFL_TextRendererDrawToBitmap
 0000:02021D54       GFL_TextRendererDrawToBitmapEx
 0000:02021D8C       GFL_TextRndBind
 0000:02021E28       GFL_TextRndSetDefaultColor
 0000:02021E70       GFL_TextRndDrawStrBuf
 0000:02021F28       GFL_TextRndDrawString
 0000:02021FE0       GFL_TextRndDrawCharProc_IDX4
 0000:0202202C       GFL_TextRndDrawCharProc_IDX8
 0000:0202207C       GFL_TextRndExecLayoutCmd
 0000:020220AC       jpt_20220AA
 0000:020221CA       def_20220AA
 0000:020221E4       GFL_TextRndExecColorCmd
 0000:020226BC       transparentIndex
 0000:0202281C       GFL_FontGetLineWidth
 0000:020228B4       GFL_FontGetBlockWidth
 0000:020229D8       wchar
 0000:020229DC       GFL_FontGetBlockHeight
 0000:02022A28       GFL_StrCmdGetWordSetCommandCount
 0000:02022A6C       GFL_StrCmdCountLinesUntilWordSetIndex
 0000:02022ADC       GFL_StrCmdGetStrWidthUntilWordSetIndex
 0000:02022B5C       GFL_StrCmdGetIdentChar
 0000:02022B64       GFL_StrCmdIsWordSet
 0000:02022B8C       GFL_StrCmdGetCommandCategory
 0000:02022BA4       GFL_StrCmdBuild
 0000:02022BF0       GFL_StrCmdGetCommandIndex
 0000:02022C08       GFL_WordSetGetCommandParameter
 0000:02022C20       GFL_StrCmdSkipCommand
 0000:02022D84       GFL_FontCreate
 0000:02022DD4       GFL_FontFree
 0000:02022DEC       GFL_FontLoad
 0000:02022F9C       GFL_FontInit
 0000:02022FC0       GFL_FontInitCached
 0000:02023040       GFL_FontInitStreamed
 0000:0202309C       nullsub_57
 0000:020230A0       GFL_FontGetGlyph
 0000:020230BC       GFL_FontGetCharIndex
 0000:02023158       GFL_FontGetGlyphCached
 0000:02023190       GFL_FontGetGlyphStreamed
 0000:020231E0       GFL_FontGlyphCopy
 0000:02023208       GFL_FontGetCharWidth
 0000:0202321C       GFL_FontGetCharHeight
 0000:02023224       GFL_FontGetCharWidthDynamic
 0000:020232F4       GFL_FontGetCharWidthFixed
 0000:02023314       GFL_TextRndUpdateColorIndexLUT
 0000:0202339C       GFL_TextRndGetGlobalColors
 0000:020233B4       GFL_TextRndCheckColorIndexChange
 0000:020233DC       GFL_FontBitmapCopy_8x8
 0000:02023A70       GFL_BitReaderRead
 0000:02023AD4       GFL_FontBitmapCopy_8x16
 0000:02023CD4       GFL_FontBitmapCopy_16x8
 0000:02023EC4       GFL_FontBitmapCopy_16x16
 0000:02024200       GFL_WordSetSystemCreateDefault
 0000:02024210       GFL_WordSetSystemCreate
 0000:020242A0       GFL_WordSetSystemFree
 0000:020242EC       GFL_WordSetClearBufFlags
 0000:02024300       GFL_WordSetClearBuf
 0000:02024320       GFL_WordSetCopyStrbuf
 0000:0202436C       GFL_WordSetLoadMsg
 0000:020243FC       WordSet_LoadSpeciesName
 0000:02024420       setPartyPokemonSpeciesNameToStrbuf
 0000:02024440       setBoxPokemonSpeciesNameToStrbuf
 0000:02024460       loadPokemonTextNameToStrbuf
 0000:0202446C       fileNo
 0000:02024470       loadPokemonSpeciesTextNameToStrbuf
 0000:02024490       loadPokemonNicknameToStrbuf
 0000:020244B0       loadBoxPokemonNameToStrbuf
 0000:020244D0       loadMoveNameToStrbuf
 0000:020244E0       loadItemNameToStrbuf
 0000:020244EC       loadItemTextNameToStrbuf
 0000:020244FC       loadItemsNameToStrbuf
 0000:0202450C       loadItemText
 0000:0202452C       loadAbilityNameToStrbuf
 0000:0202453C       loadNatureToStrbuf
 0000:02024548       WordSetNumber
 0000:0202456C       loadSayingForDisplay
 0000:020245C4       loadTypeTextToStrbuf
 0000:020245D4       copyVarForText
 0000:020245F0       GFL_WordSetLoadStr
 0000:0202460C       loadCountryToStrbuf
 0000:0202465C       loadCountryAreaToStrbuf
 0000:020246C0       loadTrainerTypeText
 0000:020246D0       loadTrainerTypeToStrbuf
 0000:020246F0       loadTrainerTypeWithArticleToStrbuf
 0000:02024700       loadTrainerNamesToStrbuf
 0000:02024710       loadStatNameToStrbuf
 0000:02024720       loadBagPocketNameToStrbuf
 0000:0202472C       loadLocationNameToStrbuf
 0000:02024738       loadBoxNameForDisplay
 0000:02024758       loadPassPowerToStrbuf
 0000:02024780       loadHobbyNameToStrbuf
 0000:02024798       loadQuestionnaireAnswerToStrbuf
 0000:020247B0       loadJobAnswerToStrbuf
 0000:020247C8       loadBattleInstituteMsgForDisplay
 0000:02024818       loadMedalNameToStrbuf
 0000:02024824       loadMedalRankToStrbuf
 0000:02024840       loadFromEmptyFile
 0000:0202484C       loadPokewoodLineToStrbuf
 0000:0202492C       loadMonthToStrbuf
 0000:0202494C       GFL_WordSetFormatStrbuf
 0000:02024A00       GFL_WordSetClearAll
 0000:02024A28       PML_SpeciesNamesResidentInit
 0000:02024A40       GFL_WordSetFormatNumber
 0000:02024B00       wcharsncpy
 0000:02024B2C       wcharscmp
 0000:02024B60       GFL_StrCharToUpperCase
 0000:02024B70       GFL_StrCharRemoveAccents
 0000:02024B94       GFL_StrBufCmpIgnoreAccents
 0000:02024BEC       GFL_StrBufIsCompressed
 0000:02024C10       GFL_StrBufUncompress
 0000:02024CAC       GetSysMsgBoxCharDatID
 0000:02024CB8       GetSysMsgBoxPaletteDatID
 0000:02024CC4       LoadSysMsgBoxBGChar
 0000:02024CEC       LoadSysMsgBoxPalette
 0000:02024D2C       LoadSysMsgBox
 0000:02024D4C       LoadCursorImageEndOfHeap
 0000:02024D98       BmpWin_DrawFrameCore
 0000:02024EAC       BmpWin_DrawFrame
 0000:02024F8C       ListMenuCore_CreateOptionList
 0000:02024FD8       ListMenuCore_FreeOptionList
 0000:02024FE8       ListMenuCore_AppendMsgOption
 0000:02025008       ListMenuCore_AppendStrBufOption
 0000:02025028       ListMenuCore_GetNextOptionPtr
 0000:02025064       ListMenuCore_FreeStrBufs
 0000:0202508C       ListMenuCore_GetFirstFreeIndex
 0000:02025170       shopDecision
 0000:0202550C       ShopUI_CreateConfirmDialog
 0000:0202571C       BmpMenuList_Create
 0000:020258D0       BmpMenuList_Update
 0000:02025A3C       BmpMenuList_Free
 0000:02025F36       jpt_2025F34
 0000:02025F50       def_2025F34
 0000:02025F72       jpt_2025F70
 0000:02025FB4       def_2025F70
 0000:02025FB8       BmpMenuList_Scroll
 0000:020261B0       BmpMenuList_CycleCursor
 0000:02026222       jpt_2026220
 0000:0202622A       def_2026220
 0000:02026554       BmpCursor_Create
 0000:02026628       GFL_ArcSysInitRawHandle
 0000:02026644       GFL_ArcSysReadRawResource
 0000:0202669C       GetItemGraphicsDatID
 0000:020266B6       jpt_20266B4
 0000:0202671A       def_20266B4
 0000:0202674C       PML_ItemArcHandleCreate
 0000:02026758       PML_ItemArcHandleReadFile
 0000:0202676C       PML_ItemReadDataFile
 0000:020267BC       setItemNameToStrbuf
 0000:020267EC       setItemDescriptionTextToStrbuf
 0000:0202681C       GetItemParam
 0000:0202684C       PML_ItemGetParam
 0000:0202685E       jpt_202685C
 0000:020268E2       def_202685C
 0000:02026900       PML_ItemGetBattleStat
 0000:02026914       jpt_2026912
 0000:02026ABC       def_2026912
 0000:02026AC0       PML_ItemIsTMHM
 0000:02026AE8       PML_ItemIsTM
 0000:02026B10       PML_ItemGetTMWazaID
 0000:02026B44       PML_MoveIsHM
 0000:02026B6C       PML_ItemGetTMBitMask
 0000:02026BB0       PML_ItemGetHMID
 0000:02026BCC       PML_ItemIsMail
 0000:02026BEC       PML_ItemGetMailID
 0000:02026C0C       PML_ItemGetMailItemID
 0000:02026C20       PML_ItemIsBerry
 0000:02026C40       PML_ItemIsNotSpecialMonsball
 0000:02026C58       PML_ItemMonsBallConvID
 0000:02026C8C       PML_ItemGetMonsBallID
 0000:02026D0C       GameSystemTimer_Disable
 0000:02026D18       GameSystemTimer_Start
 0000:02026D38       GameSystemTimer_Update
 0000:0202768E       jpt_202768C
 0000:0202776C       def_202768C
 0000:02027914       ColorFilter_ApplyLUT
 0000:02027960       ColorFilter_ApplyVintage
 0000:020279E0       GFL_WipeSet
 0000:02027AA4       a9
 0000:02027AF8       GFL_WipeIsFinished
 0000:02027B84       killBrightnessEitherEngine
 0000:02027C20       setBrightnessForEngine
 0000:02027D26       jpt_2027D24
 0000:02027D74       def_2027D24
 0000:02027F40       nullsub_58
 0000:020293FC       nullsub_59
 0000:0202A188       loadSayingToString
 0000:0202A2D8       getDexBlkAddress
 0000:0202B48C       getSubdividedCountryArrayNum
 0000:0202B4B4       CountryHasProvinces
 0000:0202B4E4       fetchFileNumOfDividedCountry
 0000:0202B4F0       getFileNumForSubdividedRegion
 0000:0202BBFC       FreeGameComm
 0000:0202BE00       GameCommSys_BootCheck
 0000:0202BE24       getBasePlayerBlk
 0000:0202D7D4       nullsub_80
 0000:0202D808       nullsub_81
 0000:0202D80C       getUINarcIdx
 0000:0202EA00       PlayerActionPerms_SetActionBlocked
 0000:0202EA08       PlayerActionPerms_IsActionBlocked
 0000:0202EA10       PlayerVolumeFader_Create
 0000:0202EA34       PlayerVolumeFader_Free
 0000:0202EA3C       PlayerVolumeFader_Update
 0000:0202EA44       PlayerVolumeFader_SetFade
 0000:0202EA64       PlayerVolumeFader_Init
 0000:0202EA7C       PlayerVolumeFader_SetTargetVolume
 0000:0202EA94       PlayerVolumeFader_SetVolume
 0000:0202EAA8       PlayerVolumeFader_StepFrame
 0000:0202EABC       PlayerVolumeFader_CalcVolume
 0000:0202EAD8       PlayerVolumeFader_Commit
 0000:0202EAF4       FieldSnd_Create
 0000:0202EB4C       FieldSnd_Free
 0000:0202EB74       FieldSnd_BGMGetStackIndex
 0000:0202EBB0       FieldSnd_GetNowBGM
 0000:0202EC68       FieldSnd_IsBusy
 0000:0202ECA8       FieldSnd_SendRequest
 0000:0202ECC4       FieldSnd_Update
 0000:0202ED00       FieldSnd_Release
 0000:0202ED08       FieldSnd_SetPlayerVolumeFade
 0000:0202ED2C       FieldSnd_PlayAmbience
 0000:0202ED7C       FieldSnd_PlayAmbienceEx
 0000:0202EDC8       FieldSnd_SetAmbienceVolume
 0000:0202EE00       FieldSnd_StopAmbience
 0000:0202EE50       FieldSnd_StopAmbienceAll
 0000:0202EE8C       FieldSnd_ResumeAmbience
 0000:0202EF84       FieldSnd_Reset
 0000:0202EFDC       FieldSnd_ReleaseCore
 0000:0202F004       FieldSnd_UpdateCommand
 0000:0202F02C       FieldSnd_GetQueuedCommand
 0000:0202F068       FieldSnd_HasQueuedCommand
 0000:0202F07C       FieldSnd_GetCommandCountByID
 0000:0202F0BC       FieldSnd_SendRequestCore
 0000:0202F0F8       FieldSnd_IsCommandSuccessionPermitted
 0000:0202F130       FieldSnd_NextCommand
 0000:0202F15C       FieldSnd_SetCommand
 0000:0202F172       jpt_202F170
 0000:0202F1C4       def_202F170
 0000:0202F280       FieldSnd_IsCommandPermitted
 0000:0202F290       FieldSnd_Control_Init
 0000:0202F2A6       jpt_202F2A4
 0000:0202F2EC       def_202F2A4
 0000:0202F2F0       FieldSnd_Control_Playing
 0000:0202F306       jpt_202F304
 0000:0202F39E       def_202F304
 0000:0202F3A0       FieldSnd_Control_Idle
 0000:0202F3D8       FieldSnd_Control_FadeOut
 0000:0202F3DC       FieldSnd_Control_FadeIn
 0000:0202F3E0       FieldSnd_Control_Push
 0000:0202F3E4       FieldSnd_Control_Pop
 0000:0202F3E8       FieldSnd_Control_PopFinish
 0000:0202F3EC       FieldSnd_Control_ChangeOut
 0000:0202F404       FieldSnd_Control_ChangeIn
 0000:0202F41C       FieldSnd_Control_ChangeFinish
 0000:0202F420       FieldSnd_Control_PostponedPush
 0000:0202F424       FieldSnd_Control_PostponedPushFinish
 0000:0202F428       FieldSnd_Control_Prepare
 0000:0202F42C       FieldSnd_Control_PrepareFinish
 0000:0202F430       FieldSnd_Exec_Init
 0000:0202F434       FieldSnd_Exec_Playing
 0000:0202F438       FieldSnd_Exec_Idle
 0000:0202F43C       FieldSnd_Exec_FadeOut
 0000:0202F458       FieldSnd_Exec_FadeIn
 0000:0202F474       FieldSnd_Exec_Push
 0000:0202F498       FieldSnd_Exec_Pop
 0000:0202F4BC       FieldSnd_Exec_PopFinish
 0000:0202F4D8       FieldSnd_Exec_ChangeOut
 0000:0202F500       FieldSnd_Exec_ChangeIn
 0000:0202F538       FieldSnd_Exec_ChangeFinish
 0000:0202F570       FieldSnd_Exec_PostponedPush
 0000:0202F598       FieldSnd_Exec_PostponedPushFinish
 0000:0202F5BC       FieldSnd_Exec_Prepare
 0000:0202F5D4       FieldSnd_Exec_PrepareFinish
 0000:0202F5F4       FieldSnd_SetState
 0000:0202F5F8       FieldSnd_FinishCommandCore
 0000:0202F604       FieldSnd_DiscardCommand
 0000:0202F614       FieldSnd_FinishCommand
 0000:0202F624       FieldSnd_CmdFadeIn
 0000:0202F63C       FieldSnd_CmdFadeOut
 0000:0202F64C       FieldSnd_BGMPush
 0000:0202F688       FieldSnd_BGMPop
 0000:0202F6B8       FieldSnd_BGMChangeOut
 0000:0202F6E4       FieldSnd_BGMChangeIn
 0000:0202F70C       FieldSnd_CmdBGMPlay
 0000:0202F72C       FieldSnd_CheckEventsPaused
 0000:0202F738       EventBGMFadeIn_Callback
 0000:0202F770       EventBGMFadeIn_Create
 0000:0202F7A4       EventBGMFadeOut_Callback
 0000:0202F7DC       EventBGMFadeOut_Create
 0000:0202F810       EventBGMPushWait_Callback
 0000:0202F854       EventBGMPushWait_Create
 0000:0202F888       EventPushBGMFinish_Callback
 0000:0202F8D0       EventPushBGMFinish_Create
 0000:0202F908       EventBGMPop_Callback
 0000:0202F940       EventBGMPop_CreateEx
 0000:0202F978       EventBGMPopAll_Callback
 0000:0202F9DC       EventBGMPopAll_Create
 0000:0202FA10       EventBGMPlayPushEx_Callback
 0000:0202FA5C       EventBGMPlayPushEx_Create
 0000:0202FA9C       EventMEPlay_Callback
 0000:0202FAE0       EventMEPlay_Create
 0000:0202FB18       EventBGMChange_Callback
 0000:0202FB50       EventBGMChange_Create
 0000:0202FB90       EventBGMFadeStop_Callback
 0000:0202FBB2       jpt_202FBB0
 0000:0202FBE2       def_202FBB0
 0000:0202FBE8       EventBGMPlay_Callback
 0000:0202FC34       EventBGMPlay_Create
 0000:0202FC68       EventBGMPlayEx_Callback
 0000:0202FCB4       EventBGMPlayEx_Create
 0000:0202FCEC       ChangeBGMToFieldSilence_Callback
 0000:0202FD20       bgmId
 0000:0202FD24       CreateBGMFadeOutEvent
 0000:0202FD58       EventBGMPlayPush_Callback
 0000:0202FDA4       EventBGMPlayPush_Create
 0000:0202FDD8       EventBGMFadeStop_Create
 0000:0202FE0C       EventBattleBGMPlay_Callback
 0000:0202FE24       jpt_202FE22
 0000:0202FE76       def_202FE22
 0000:0202FE7C       EventBattleBGMPlay_Create
 0000:0202FEB0       EventBGMFadePop_Create
 0000:0202FF44       EventBGMFadeWait_Callback
 0000:0202FF70       EventBGMFadeWait_Create
 0000:0202FFA0       FieldSnd_ChangeZoneBGM
 0000:0202FFF4       FieldSnd_SetZoneBGM
 0000:0203002C       FieldSnd_FadeInImmediate
 0000:0203003C       FieldSnd_SetBGMOnPlayerExStateChange
 0000:020300A4       GetMapBGMIDByPlayerState2
 0000:020300AC       GameData_GetNowBGM
 0000:020300B8       GameData_IsZoneBGMOverriden
 0000:020300D0       GetPlayerLandSurfCycleState
 0000:020300DC       GetRegularZoneBGMID
 0000:020300EC       GetZoneBGMOverrideID
 0000:02030190       GetMapBGMIDByPlayerState
 0000:0203037E       jpt_203037C
 0000:020303BA       def_203037C
 0000:020303DE       jpt_20303DC
 0000:02030400       def_20303DC
 0000:02030404       LoadTPokeData
 0000:0203044C       FreeTPokeData
 0000:02030464       GetPokemonFieldOBJCODE
 0000:02030478       IsFieldPokemonSpriteHugeBillboard
 0000:020304A8       GetFieldPokemonMMdlLUTIndex_
 0000:020304E8       GetFieldPokemonMMdlLUTIndex
 0000:020304F8       GetIndexOfTPokeObjCode
 0000:0203050C       TrainerData_GetParam
 0000:0203052A       jpt_2030528
 0000:02030574       TrainerMsg_CheckExists
 0000:02030604       TrainerMsg_Load
 0000:0203070C       TrainerData_ReadTrainerData
 0000:02030750       TrainerData_ReadParty
 0000:02030760       TrainerClass_GetSex
 0000:0203076C       GetTrSpriteBaseDatID
 0000:020307C0       GetTrainerClassEyeBGMID
 0000:020307CC       GetTrainerClassSpecialId
 0000:020307F0       GetTrainerClassBGMGroupId
 0000:0203080C       GetTrainerClassBattlePedestal
 0000:02030828       CheckOverridenTrainerBattleBG
 0000:02030854       TrainerUtil_LoadTrainer
 0000:020308EC       TrainerUtil_LoadParty
 0000:02030986       jpt_2030984
 0000:02030A78       def_2030984
 0000:02030DCC       TrainerUtil_CalcBasePID
 0000:02030E2C       TrainerUtil_SetupPkm
 0000:02030EE8       TrainerUtil_IsIDBattleInst
 0000:02030EFC       ISSCitySys_Create
 0000:02030F40       ISSCitySys_Update
 0000:02030F54       ISSCitySys_Enable
 0000:02030F5C       ISSCitySys_Disable
 0000:02030F64       ISSCitySys_ChangeZone
 0000:02030F84       ISSCitySys_LoadUnits
 0000:02030F94       ISSCitySys_LoadUnitsCore
 0000:02031000       ISSCitySys_GetState
 0000:02031004       ISSCitySys_SetState
 0000:02031008       ISSCitySys_EnableCore
 0000:02031054       ISSCitySys_DisableCore
 0000:02031068       ISSCitySys_ChangeZoneCore
 0000:020310C4       ISSCitySys_GetNowZoneID
 0000:020310D0       ISSCitySys_IsEnabled
 0000:020310D4       ISSCitySys_UpdateCore
 0000:02031104       ISSCitySys_UpdateState_EmitterOnly
 0000:02031118       ISSCitySys_UpdateState_EmitterMasterUp
 0000:0203114C       ISSCitySys_UpdateState_EmitterMasterDown
 0000:02031180       ISSCitySys_GetNowUnit
 0000:02031190       ISSCitySys_GetNowUnitIndex
 0000:02031194       ISSCitySys_IsUnitBound
 0000:020311A8       ISSCitySys_IsZoneRegist
 0000:020311BC       ISSCitySys_SetUnitByZone
 0000:020311E0       ISSCitySys_FindUnitByZone
 0000:0203120C       ISSCitySys_GetMasterVolume
 0000:02031210       ISSCitySys_RaiseVolume
 0000:0203123C       ISSCitySys_LowerVolume
 0000:02031268       ISSCitySys_SetMasterVolume
 0000:0203126C       ISSCitySys_GetNowEmitterVolume
 0000:02031270       ISSCitySys_UpdateEmitter
 0000:020312A4       ISSCitySys_CalcEmitterVolume
 0000:020312C0       ISSCitySys_SetNowEmitterVolume
 0000:020312C4       ISSCitySys_CommitVolume
 0000:020312D8       ISSCitySys_CalcVolume
 0000:020312F4       ISSCityUnit_Create
 0000:02031338       ISSCityUnit_GetZoneID
 0000:0203133C       ISSCityUnit_CalcEmitterVolume
 0000:02031344       ISSCityUnit_LoadArcData
 0000:0203137C       ISSCityUnit_CalcEmitterVolumeCore
 0000:020313B4       ISSCityUnit_CalcEmitterVolumeX
 0000:02031404       ISSCityUnit_CalcEmitterVolumeY
 0000:02031454       ISSCityUnit_CalcEmitterVolumeZ
 0000:020314AC       ISSCityUnit_GetKeyIndexX
 0000:020314DC       ISSCityUnit_GetKeyIndexY
 0000:0203150C       ISSCityUnit_GetKeyIndexZ
 0000:0203153C       ISSCityUnit_GetOriginX
 0000:0203155C       ISSCityUnit_GetOriginY
 0000:0203157C       ISSCityUnit_GetOriginZ
 0000:0203159C       ISSCityUnit_Lerp
 0000:020315B4       ISSRoadSys_Create
 0000:020315FC       ISSRoadSys_Update
 0000:02031604       ISSRoadSys_Enable
 0000:02031614       ISSRoadSys_EnableCore
 0000:02031638       ISSRoadSys_UpdateCore
 0000:0203165C       ISSRoadSys_SyncPlayerPosIsChange
 0000:02031694       ISSRoadSys_RaiseVolume
 0000:020316AC       ISSRoadSys_LowerVolume
 0000:020316C4       ISSRoadSys_CommitVolume
 0000:020316D4       ISSDungeon_SetSeason
 0000:020316FC       pitch_pan_trackBitMask
 0000:02031704       ISSDungeonSys_LoadArcData
 0000:02031768       ISSDungeonList_Free
 0000:0203177C       ISSDungeonList_FindByZone
 0000:020317A8       ISSDungeonSys_Create
 0000:020317F4       ISSDungeonSys_Free
 0000:0203180C       ISSDungeonSys_Update
 0000:02031828       ISSDungeonSys_ReqChangeZone
 0000:0203182C       ISSDungeonSys_Enable
 0000:02031834       ISSDungeonSys_Disable
 0000:0203183C       ISSDungeonSys_IsEnabled
 0000:02031840       ISSDungeonSys_IsZoneRegist
 0000:0203185C       ISSDungeonSys_Reset
 0000:02031884       ISSDungeonSys_EnableCore
 0000:02031898       ISSDungeonSys_DisableCore
 0000:020318A4       ISSDungeonSys_ChangeZone
 0000:020318C4       ISS_Create
 0000:020318F8       ISS_Free
 0000:02031908       ISS_Update
 0000:0203194C       ISS_ChangeZone
 0000:02031980       ISS_GetSwitchSys
 0000:02031984       ISS_Get3DSoundSys
 0000:02031988       ISS_GetDungeonSys
 0000:0203198C       ISS_Reset
 0000:020319A4       ISS_LoadGameData
 0000:020319DC       ISS_FreeSubsystems
 0000:02031A04       ISS_InitRoadSys
 0000:02031A18       ISS_InitCitySys
 0000:02031A2C       ISS_InitDungeonSys
 0000:02031A44       ISS_InitZoneSys
 0000:02031A54       ISS_InitSwitchSys
 0000:02031A64       ISS_Init3DSoundSys
 0000:02031A74       ISS_FreeRoadSys
 0000:02031A84       ISS_FreeCitySys
 0000:02031A94       ISS_FreeDungeonSys
 0000:02031AA4       ISS_FreeZoneSys
 0000:02031AB4       ISS_FreeSwitchSys
 0000:02031AC4       ISS_Free3DSoundSys
 0000:02031AD4       ISS_UpdateRoadSys
 0000:02031AE4       ISS_UpdateCitySys
 0000:02031AF4       ISS_UpdateDungeonSys
 0000:02031B00       ISS_UpdateZoneSys
 0000:02031B0C       ISS_UpdateSwitchSys
 0000:02031B18       ISS_Update3DSoundSys
 0000:02031B28       ISS_EnableRoadSys
 0000:02031B34       ISS_EnableCitySys
 0000:02031B40       ISS_EnableDungeonSys
 0000:02031B4C       ISS_EnableZoneSys
 0000:02031B60       ISS_EnableSwitchSys
 0000:02031B6C       ISS_Enable3DSoundSys
 0000:02031B78       ISS_DisableRoadSys
 0000:02031B84       ISS_DisableCitySys
 0000:02031B90       ISS_DisableDungeonSys
 0000:02031B9C       ISS_DisableZoneSys
 0000:02031BA8       ISS_DisableSwitchSys
 0000:02031BB4       ISS_Disable3DSoundSys
 0000:02031BC0       nullsub_18
 0000:02031BC4       ISS_ChangeCitySysZone
 0000:02031BD0       ISS_ChangeDungeonSysZone
 0000:02031BDC       ISS_ChangeZoneSysZone
 0000:02031BE8       ISS_ChangeSwitchSysZone
 0000:02031BF4       ISS_Change3DSoundSysZone
 0000:02031C00       ISS_GetPlayerState
 0000:02031C0C       ISS_GetZoneID
 0000:02031C18       ISS_GetBGMID
 0000:02031C20       ISS_DecideUsedSubsystem
 0000:02031C3C       ISS_CheckBGMDesync
 0000:02031C54       ISS_SwitchSubsystem
 0000:02031C9C       ISS3DSoundSys_Create
 0000:02031CEC       ISS3DSoundSys_Free
 0000:02031CFC       ISS3DSoundSys_Update
 0000:02031D04       ISS3DSoundSys_Enable
 0000:02031D0C       ISS3DSoundSys_Disable
 0000:02031D14       ISS3DSoundSys_ChangeZone
 0000:02031D1C       ISS3DSoundSys_ReqChangeMasterVolume
 0000:02031D28       ISS3DSoundSys_EnableUnit
 0000:02031D30       ISS3DSoundSys_IsUnitEnabled
 0000:02031D3C       ISS3DSoundSys_SetUnitLocation
 0000:02031D44       ISS3DSoundSys_SetListener
 0000:02031D4C       ISS3DSoundSys_Init
 0000:02031D60       ISS3DSoundSys_LoadArcData
 0000:02031DD0       ISS3DSoundSys_FreeEntries
 0000:02031DE8       ISS3DSoundSys_SetUsedConfigID
 0000:02031DF8       ISS3DSoundSys_DecideUsedConfigID
 0000:02031E2C       ISS3DSoundSys_Reset
 0000:02031E68       ISS3DSoundSys_EnableUnitCore
 0000:02031E84       ISS3DSoundSys_SetUnitLocationCore
 0000:02031EA4       ISS3DSoundSys_SetListenerCore
 0000:02031EC4       ISS3DSoundSys_EnableCore
 0000:02031EF0       ISS3DSoundSys_DisableCore
 0000:02031EFC       ISS3DSoundSys_UpdateCore
 0000:02031F48       ISS3DSoundSys_ChangeZoneCore
 0000:02031F50       ISS3DSoundSys_MuteConfig
 0000:02031F70       ISS3DSoundSys_CalcUnitVolume
 0000:02031FB8       ISS3DSoundSys_CalcUnitPan
 0000:02032004       ISS3DSoundUnit_CalcVolume
 0000:02032050       ISS3DSoundSys_RaiseUnitVolume
 0000:02032068       ISS3DSoundSys_LowerUnitVolume
 0000:02032080       ISS3DSoundSys_CommitVolume
 0000:020320A8       ISS3DSoundUnit_CalcPan
 0000:020321D8       ISS3DSoundSys_LowerUnitPan
 0000:020321F0       ISS3DSoundSys_RaiseUnitPan
 0000:02032208       ISS3DSoundSys_CommitPan
 0000:0203222C       ISS3DSoundSys_UpdateMasterVolume
 0000:0203225C       ISS3DSoundSys_AdjustVolume
 0000:02032270       ISSZoneSys_Create
 0000:020322C4       ISSZoneSys_Update
 0000:020322D4       ISSZoneSys_ChangeZone
 0000:020322E4       ISSZoneSys_Enable
 0000:020322F4       ISSZoneSys_LoadArcData
 0000:0203235C       ISSZoneSys_EnableCore
 0000:02032398       ISSZoneSys_ChangeZoneCore
 0000:020323CC       ISSZoneSys_FindZoneDesc
 0000:020323F8       ISSZoneSys_UpdateCore
 0000:02032478       ISSSwitchSys_Create
 0000:02032494       ISSSwitchSys_Free
 0000:020324A4       ISSSwitchSys_Update
 0000:020324F4       ISSSwitchSys_Enable
 0000:020324FC       ISSSwitchSys_Disable
 0000:02032504       ISSSwitchSys_ChangeZone
 0000:0203250C       ISSSwitchSys_SeqMasterVolumeFade
 0000:02032524       ISSSwitchSys_ReqSwitchFadeIn
 0000:02032538       ISSSwitchSys_ReqSwitchFadeOut
 0000:0203254C       ISSSwitchSys_IsSwitchOn
 0000:0203256C       ISSSwitch_ReqSwitchMuteStateChange
 0000:0203258C       ISSSwitchSys_ReqMasterVolumeChange
 0000:020325A0       ISSSwitchSys_Reset
 0000:020325CC       ISSSwitchSys_Alloc
 0000:020325E8       ISSSwitchSys_FreeCore
 0000:020325F0       ISSSwitchSys_LoadArcData
 0000:02032644       ISSSwitchSys_FreeSwitchSets
 0000:02032670       ISSSwitchSys_UpdateSwitchSet
 0000:02032680       ISSSwitchSys_EnableCore
 0000:020326B0       ISSSwitchSys_DisableCore
 0000:020326C4       ISSSwitchSys_ChangeZoneCore
 0000:020326EC       ISSSwitchSys_GetSwitchSetCount
 0000:020326F0       ISSSwitchSys_GetSwitchSet
 0000:020326F8       ISSSwitchSys_GetNowSwitchSet
 0000:020326FC       ISSSwitchSys_IsZoneIDNoNeedSetup
 0000:02032714       ISSSwitchSys_GetSwitchSetForBGM
 0000:02032748       ISSSwitchSys_ChangeSwitchSetForBGM
 0000:0203276C       ISSSwitchSys_CommitVolume
 0000:0203277C       ISSSwitchSys_GetBGMID
 0000:02032784       ISSSwitchSys_IsEnabled
 0000:02032788       ISSSwitchSys_ResetSwitchSetState
 0000:02032798       ISSSwitch_ReqSwitchMuteStateChangeCore
 0000:020327D0       ISSSwitchMuteStateChangeRequest_Set
 0000:020327EC       ISSSwitchMuteStateChangeRequest_Reset
 0000:020327F8       ISSSwitchSys_ProcessMuteStateChangeRequest
 0000:02032844       ISSSwitchMuteStateChangeRequest_IsEnabled
 0000:02032848       ISSSwitchSys_ReqMasterVolumeChangeCore
 0000:0203286C       ISSSwitchMasterVolumeChangeRequest_Set
 0000:02032888       ISSSwitchMasterVolumeChangeRequest_Reset
 0000:02032894       ISSSwitchSys_ProcessMasterVolumeChangeRequest
 0000:020328CC       ISSSwitchMasterVolumeChangeRequest_IsEnabled
 0000:020328D0       ISSSwitchSet_Create
 0000:020328EC       ISSSwitchSet_Free
 0000:020328FC       ISSSwitchSet_LoadArcData
 0000:02032904       ISSSwitchSet_Update
 0000:0203290C       ISSSwitchSet_ReqSwitchFadeIn
 0000:02032914       ISSSwitchSet_UnmuteSwitch
 0000:02032920       ISSSwitchSet_ReqSwitchFadeOut
 0000:02032928       ISSSwitchSet_MuteSwitch
 0000:0203293C       ISSSwitchSet_GetBGMId
 0000:02032944       ISSSwitchSet_CheckHasZone
 0000:0203294C       ISSSwitchSet_IsSwitchOn
 0000:0203295C       ISSSwitchSet_SetMasterVolumeFade
 0000:020329A8       ISSSwitchSet_Init
 0000:020329E0       ISSSwitchSet_Alloc
 0000:020329F8       ISSSwitchSet_FreeCore
 0000:02032A00       ISSSwitchSet_CreateSwitches
 0000:02032A1C       ISSSwitchSet_FreeSwitches
 0000:02032A38       ISSSwitchSet_LoadArcDataCore
 0000:02032ACC       ISSSwitchSet_UpdateCore
 0000:02032B00       ISSSwitchSet_ReqSwitchFadeInCore
 0000:02032B0C       ISSSwitchSet_ReqSwitchFadeOutCore
 0000:02032B18       ISSSwitchSet_Reset
 0000:02032B54       ISSSwitchSet_GetBGMIdCore
 0000:02032B58       ISSSwitchSys_GetZoneIDCount
 0000:02032B5C       ISSSwitchSys_GetZoneID
 0000:02032B64       ISSSwitchSet_CheckHasZoneCore
 0000:02032B90       ISSSwitchSet_IsSwitchOnCore
 0000:02032B9C       ISSSwitchSet_GetSwitch
 0000:02032BA4       ISSSwitchSet_CommitVolume
 0000:02032BC0       ISSSwitchSet_UpdateFadeIn
 0000:02032BF4       ISSSwitchSet_UpdateFadeOut
 0000:02032C28       ISSSwitchSet_AdvanceFade
 0000:02032C4C       ISSSwitchSet_IsFadeOver
 0000:02032C64       ISSSwitch_Create
 0000:02032C74       ISSSwitch_Free
 0000:02032C7C       ISSSwitch_Set
 0000:02032C84       ISSSwitch_IsOn
 0000:02032C8C       ISSSwitch_ReqFadeIn
 0000:02032C94       ISSSwitch_ReqFadeOut
 0000:02032C9C       ISSSwitch_Unmute
 0000:02032CA4       ISSSwitch_Mute
 0000:02032CAC       ISSSwitch_Update
 0000:02032CB4       ISSSwitch_CommitVolume
 0000:02032CBC       ISSSwitch_Alloc
 0000:02032CD8       ISSSwitch_FreeCore
 0000:02032CE0       ISSSwitch_Reset
 0000:02032CF0       ISSSwitch_SetCore
 0000:02032CF8       ISSSwitch_AdvanceFade
 0000:02032D0C       ISSSwitch_IsFadeOver
 0000:02032D1C       ISSSwitch_UpdateCore
 0000:02032D5C       ISSSwitch_Update_ON
 0000:02032D60       ISSSwitch_Update_OFF
 0000:02032D64       ISSSwitch_Update_FADE_IN
 0000:02032D80       ISSSwitch_Update_FADE_OUT
 0000:02032D9C       ISSSwitch_ReqFadeInCore
 0000:02032DB4       ISSSwitch_ReqFadeOutCore
 0000:02032DCC       ISSSwitch_UnmuteCore
 0000:02032DD8       ISSSwitch_MuteCore
 0000:02032DE4       ISSSwitch_GetState
 0000:02032DE8       ISSSwitch_SetState
 0000:02032DF0       ISSSwitch_CalcVolume
 0000:02032E3C       ISSSwitch_CommitVolumeCore
 0000:02032E58       ISSSwitch_IsOnCore
 0000:02032E8C       ISSSwitch_IsOffCore
 0000:02032EC0       GetWeatherAll
 0000:02032F50       IsSeasonCurrent
 0000:02032F68       ResetWeather
 0000:02032F8C       UpdateWeatherToDefault
 0000:02032FE4       GetEntralinkWeatherIfApplicable
 0000:02033074       GetRoute7WeatherIfApplicable
 0000:020330B0       GetBirthdayZoneWeather
 0000:0203374C       nullsub_105
 0000:02033794       GetPokemonGraphicsARCID
 0000:02033798       GetPokemonSingleCellCharacterDataNo
 0000:020337D0       GetPokemonCharacterDataNo
 0000:02033808       GetPokemonPaletteDataNo
 0000:02033844       GetPokemonCellsDataNo
 0000:02033878       GetPokemonCellAnimeDataNo
 0000:020338AC       GetPokemonMultiCellsDataNo
 0000:020338E0       GetPokemonMultiCellAnimeDataNo
 0000:02033914       GetPokemonBinFileDataNo
 0000:02033BDC       GetPokemonDataIDBase
 0000:02033D10       GetTrainerSpriteARCID
 0000:02033D1C       GetTrSpriteCharacter1DatID
 0000:02033D28       GetTrSpriteCharacter2DatID
 0000:02033D34       GetTrSpritePaletteDatID
 0000:02033D40       GetTrSpriteCellDatID
 0000:02033D4C       GetTrSpriteCellAnmDatID
 0000:02033D58       GetTrSpriteMultiCellDatID
 0000:02033D64       GetTrSpriteMultiCellAnmDatID
 0000:02033D70       GetTrSpriteBinDatID
 0000:02033DE8       LoadSingleCellSpindaGraphics
 0000:02033E50       MakePokeGraArcHandle
 0000:02034CAC       GFL_G3DScreenTexCreate
 0000:02034D14       jpt_2034D12
 0000:02034D3A       def_2034D12
 0000:02034D5C       GFL_G3DScreenTexCapture
 0000:02034DD4       GFL_G3DAnmMdlDrawHeadless
 0000:02034EA0       aspect
 0000:02034F4C       GameSystem_GetSeason
 0000:02034F58       GameData_GetSeasons
 0000:02034F98       Season_GetRealTime
 0000:02034FB4       Season_GetNext
 0000:02034FC8       Season_GetPrevious
 0000:02034FDC       Season_Set
 0000:02035314       canPlayerExchangePhotos
 0000:0203534C       hasLicenseBeenAccepted
 0000:02035360       getBirthdayMonthDay
 0000:02035990       PokeParty_SetupMetData
 0000:020359B4       PML_UtilSetupMetData
 0000:020359DA       jpt_20359D8
 0000:02035A78       def_20359D8
 0000:02035A88       setMetCurrentDateTime
 0000:02035AB8       setFatefulEncounterPkmData
 0000:02035B00       setDreamRadarPokeMetInfo
 0000:02035B28       PML_UtilSetNPokemonMetData
 0000:02035B90       PML_PkmClearMetParams
 0000:02035BA8       PML_PkmSetMetParams
 0000:02035BF4       PML_PkmSetMetParamsEx
 0000:02035C48       PML_UtilSyncHatchAndMetParams
 0000:02035CB8       PML_PkmSetOT
 0000:02035D00       PML_PkmSyncMetLevel
 0000:02035D18       PML_PkmSyncOriginGame
 0000:02035D38       special_transfers
 0000:0203602C       isPkmMoveHmMove
 0000:02036038       doesPkmHaveTmMove
 0000:02036068       showSavegameMainError
 0000:02036074       showSavegameAltError
 0000:02036088       playSavegameError
 0000:020360C4       displaySavegameError
 0000:02036190       displayLightBlueErrorWindow
 0000:02036260       loadDisplayPositionFont
 0000:02036314       StartMenuEventInit
 0000:02036318       StartMenuEventTick
 0000:0203632E       jpt_203632C
 0000:02036388       def_203632C
 0000:020363AC       StartMenuEventEnd
 0000:020363B0       getYearMonthDay
 0000:0203696E       jpt_203696C
 0000:02036A10       def_203696C
 0000:02036CB4       getSpecialJoinAveTextToBuf
 0000:02037118       joinAveTextHandler
 0000:02038F2C       JoinAvenue_GetParam
 0000:02038F42       jpt_2038F40
 0000:0203908A       def_2038F40
 0000:02039428       setImportantJABlockAddresses
 0000:020394AC       gfRand
 0000:02039850       join_ave_raffle_shop
 0000:02039AAC       GFL_HeapGetBase
 0000:02039AC8       GFL_HeapGetParentBase
 0000:02039AE4       GFL_HeapGetRawPtr
 0000:02039B00       GFL_HeapGetAllocationCountCore
 0000:02039B1C       GFL_HeapMgrInit
 0000:02039C08       GFL_HeapAddChild
 0000:02039C74       GFL_HeapAddRoot
 0000:02039CBC       GFL_HeapAdd
 0000:02039D30       GFL_HeapDeleteCore
 0000:02039DC8       GFL_HeapAllocateCore
 0000:02039E58       GFL_HeapFreeCore
 0000:02039EDC       GFL_HeapCreateAllocatorCore
 0000:02039F24       GFL_HeapResizeCore
 0000:02039F8C       GFL_HeapGetFreeSizeCore
 0000:02039FBC       GFL_HeapGetHighestAllocatableSize
 0000:02039FEC       GFL_HeapGetSize
 0000:0203A020       GFL_HeapGetValidHeapBase
 0000:0203A04C       GFL_HeapGetAllocationCount
 0000:0203A080       GFL_HeapGetBlockHeapID
 0000:0203A088       GFL_HeapGetBlockDebugInfoPtr
 0000:0203A090       GFL_HeapStatusCheck
 0000:0203A0C4       GFL_HeapGetLastResult
 0000:0203A0D0       GFL_HeapDTCMInitCore
 0000:0203A130       GFL_HeapDTCMAllocateCore
 0000:0203A144       freeBlkFromDTCM
 0000:0203A15C       GFL_MemInit
 0000:0203A188       GFL_HeapCreateChild
 0000:0203A1A4       GFL_HeapCreateRoot
 0000:0203A1C0       GFL_HeapHandleAllocResult
 0000:0203A1D2       jpt_203A1D0
 0000:0203A1FA       def_203A1D0
 0000:0203A1FC       GFL_HeapDelete
 0000:0203A228       GFL_HeapAllocate
 0000:0203A278       GFL_HeapFree
 0000:0203A288       GFL_HeapCreateAllocator
 0000:0203A298       GFL_HeapResize
 0000:0203A2B6       jpt_203A2B4
 0000:0203A2D2       def_203A2B4
 0000:0203A2D4       GFL_HeapGetFreeSize
 0000:0203A2E8       GFL_HeapStatusValidate
 0000:0203A30C       GFL_HeapSetBlockDebugInfo
 0000:0203A32C       GFL_HeapDebugCopyFileName
 0000:0203A380       GFL_HeapDumpAllocFailure
 0000:0203A3A0       GFL_HeapDebugNotifyTrackedAlloc
 0000:0203A3C4       GFL_HeapDebugNotifyTrackedFree
 0000:0203A3F8       GFL_HeapDebugTraceAlloc
 0000:0203A414       GFL_HeapDebugTraceFree
 0000:0203A434       GFL_HeapDeleteCleanCheck
 0000:0203A448       GFL_HeapDumpProc
 0000:0203A4CC       GFL_HeapDumpOnFailure
 0000:0203A508       GFL_HeapDTCMInit
 0000:0203A518       GFL_HeapDTCMAllocate
 0000:0203A520       _freeBlkFromDTCM
 0000:0203A528       GFL_TCBMgrInitTasks
 0000:0203A568       GFL_TCBMgrGetReadyTask
 0000:0203A584       GFL_TCBMgrNotifyReadyTask
 0000:0203A5B0       GFL_TCBMgrCalcAllocSize
 0000:0203A5B8       GFL_TCBMgrCreate
 0000:0203A5DC       GFL_TCBMgrSetup
 0000:0203A5FC       GFL_TCBMgrUpdate
 0000:0203A63C       nullsub_22
 0000:0203A640       GFL_TCBMgrAddTask
 0000:0203A654       GFL_TCBMgrAddTaskCore
 0000:0203A6D4       GFL_TCBRemove
 0000:0203A6F8       GFL_TCBSetCallbackFunc
 0000:0203A6FC       GFL_TCBGetData
 0000:0203A700       GFL_TCBExMgrGetTask
 0000:0203A70C       GFL_TCBExMgrGetReadyTask
 0000:0203A728       GFL_TCBExMgrNotifyReadyTask
 0000:0203A73C       GFL_TCBExMgrInitTask
 0000:0203A750       GFL_TCBExRemove
 0000:0203A778       GFL_TCBExGetDataCore
 0000:0203A788       GFL_TCBExMgrInitTasks
 0000:0203A7B8       GFL_TCBExMgrCreate
 0000:0203A820       GFL_TCBExMgrUpdate
 0000:0203A868       GFL_TCBExMgrFree
 0000:0203A87C       GFL_TCBExMgrFreeTasks
 0000:0203A89C       GFL_TCBExRequestEnd
 0000:0203A8B4       GFL_TCBExMgrAddTask
 0000:0203A93C       GFL_TCBExGetData
 0000:0203A944       GCTX_ProcMgrInit
 0000:0203A954       GCTX_ProcMgrUpdate
 0000:0203A964       GCTX_ProcMgrQueueProc
 0000:0203A980       GCTX_ProcMgrReplaceProc
 0000:0203A99C       CreateGameProcManager
 0000:0203A9A4       GFL_ProcMgrUpdate
 0000:0203A9AC       FreeGameProcManager
 0000:0203A9B4       QueueGameProc
 0000:0203A9BC       GFL_ProcMgrCreate
 0000:0203A9E8       GFL_ProcMgrSwitchQueued
 0000:0203AA10       GFL_ProcMgrUpdateCore
 0000:0203AA8C       GFL_ProcMgrFree
 0000:0203AAA4       GFL_ProcMgrReplaceProc
 0000:0203AAB4       GFL_ProcMgrQueueProc
 0000:0203AADC       GFL_ProcCreate
 0000:0203AB10       GFL_ProcFree
 0000:0203AB18       GFL_ProcInitSubsystem
 0000:0203AB3C       GFL_ProcReleaseSubsystem
 0000:0203AB4C       GFL_ProcUpdate
 0000:0203AB62       jpt_203AB60
 0000:0203ABD4       def_203AB60
 0000:0203ABD8       mainBackupSystemInit
 0000:0203AC30       SaveData_Init
 0000:0203AD60       SaveData_InitMain
 0000:0203AD80       freeSaveBlocks
 0000:0203ADB0       SaveData_GetBlockPtr
 0000:0203ADC0       initSaveBlkCallbacks
 0000:0203B0B4       getLockIDStatus_inline_stub
 0000:0203BA0A       jpt_203BA08
 0000:0203BCE8       def_203BA08
 0000:0203BD98       getCrcOfSaveBlockStoreAtEnd
 0000:0203BFA8       identifyGameCardBackup
 0000:0203C024       readFlashWaitSuccess
 0000:0203C09C       setCardWrittenVerified
 0000:0203C148       finishBackupGetResult
 0000:0203C17C       jpt_203C17A
 0000:0203C192       def_203C17A
 0000:0203C1B4       enable
 0000:0203C1B8       cancelCardProcess
 0000:0203C214       getLockIDStatus
 0000:0203C220       SaveData_InitTable
 0000:0203C27C       freeIntermediateSaveDataBlocks
 0000:0203C290       runSaveBlkInitializers
 0000:0203C2E4       getSizeSaveTblBlk
 0000:0203C314       SaveData_BuildTable
 0000:0203C3B0       getStartOffsetOfSaveBlockDataInSave
 0000:0203C3DC       getSizeOfSaveBlockData
 0000:0203C408       getSaveSize
 0000:0203C40C       GetSaveDataSize
 0000:0203C410       GFL_AreaManCreate
 0000:0203C474       GFL_AreaManFree
 0000:0203C47C       GFL_AreaManAllocDefault
 0000:0203C48C       GFL_AreaManAllocHead
 0000:0203C4B0       GFL_AreaManAllocHeadOptUntil8
 0000:0203C58C       GFL_AreaManAllocHeadOptOver8
 0000:0203C658       GFL_AreaManAllocTail
 0000:0203C68C       GFL_AreaManAllocTailOptUntil8
 0000:0203C75C       GFL_AreaManAllocTailOptOver8
 0000:0203C830       GFL_AreaManSetBits
 0000:0203C858       GFL_AreaManDeAlloc
 0000:0203C8E0       GFL_AreaManGetAllocatableBitIndexHead
 0000:0203C91C       GFL_AreaManGetAllocatableBitIndexTail
 0000:0203C950       GFL_AreaManFreeBitsOptOneByte
 0000:0203C970       GFL_AreaManSetBitsCore
 0000:0203CA18       nullsub_11
 0000:0203CA50       GFL_VRAMManagerCalcBankSizeBytes
 0000:0203CA78       GFL_VRAMManagerCreate
 0000:0203CAC8       GFL_VRAMManagerFree
 0000:0203CADC       GFL_VRAMManagerGetObjTileMappingBoundary
 0000:0203CB08       GFL_VRAMManagerAllocInit
 0000:0203CB14       GFL_VRAMManagerAllocIsInvalid
 0000:0203CB2C       GFL_VRAMManagerAlloc
 0000:0203CB6C       GFL_VRAMManagerDeAlloc
 0000:0203CB84       GFL_VRAMManagerGetAllocAddress
 0000:0203CB90       GFL_DebugSetAssertHandlers
 0000:0203CBA0       GFL_DebugSetAssertFailCallback
 0000:0203CBAC       GFL_DebugAssertFail
 0000:0203CBC0       GFL_DebugAssertFailEx
 0000:0203CBDC       GFL_DebugPrintCreateSurface
 0000:0203CCD0       GFL_DebugPrintOutputMessage
 0000:0203CD10       GFL_DebugPrintCommit
 0000:0203CD5C       GFL_DebugSetVerboseAssertHandlers
 0000:0203CD68       result
 0000:0203CD78       GFL_OvlManagerInit
 0000:0203CDE0       GFL_OvlEntryUnload
 0000:0203CDF4       GFL_OvlUnload
 0000:0203CE38       GFL_OvlLoad
 0000:0203CED0       GFL_OvlCheckMemoryCollision
 0000:0203CF68       GFL_OvlGetList
 0000:0203CF90       GFL_OvlGetListCount
 0000:0203CFC0       GFL_OvlGetMemoryRegion
 0000:0203D004       GFL_OvlGetMemoryRange
 0000:0203D038       GFL_HIDInit
 0000:0203D0C8       GFL_HIDUpdate
 0000:0203D118       GCTX_HIDUpdate
 0000:0203D250       SetUICallback
 0000:0203D258       SetUICallbackStatic
 0000:0203D2E0       GFL_HIDSetSoftResetCallback
 0000:0203D2E8       GCTX_HIDSetSoftResetCallback
 0000:0203D300       GFL_HIDGetKeypadManager
 0000:0203D304       GCTX_HIDGetInstance
 0000:0203D374       battery
 0000:0203D3FC       GetIsShouldUICallback
 0000:0203D410       CallInputCallback
 0000:0203D44C       setBacklightBothScreens
 0000:0203D46C       sleepSetup
 0000:0203D524       GFL_HIDDoSoftReset
 0000:0203D5A8       GFL_HIDSetUpdateRate
 0000:0203D5C0       GCTX_HIDSetUpdateRate
 0000:0203D5D4       GCTX_HIDGetUpdateRate
 0000:0203D5F4       GCTX_HIDChangeFPS
 0000:0203D688       getTouchpadBlock
 0000:0203D704       initTouchpad
 0000:0203D78C       getTouchpadInput
 0000:0203D910       touchpadData
 0000:0203DBE0       GFL_HIDClearTouchState
 0000:0203DC70       GFL_HIDCreateKeypadManager
 0000:0203DCA0       GFL_HIDUpdateKeypad
 0000:0203DD7C       GCTX_HIDUpdateKeypad
 0000:0203DD88       keypressInterpreter
 0000:0203DED0       setFramecounts
 0000:0203DEE0       setKeypressFramecounts
 0000:0203DEF4       setTempSpaceToKeyBlock
 0000:0203DF00       setKeyBlkStarted
 0000:0203DF10       GFL_HIDGetPressedKeys
 0000:0203DF28       GCTX_HIDGetPressedKeys
 0000:0203DF34       GFL_HIDGetHeldKeys
 0000:0203DF4C       GCTX_HIDGetHeldKeys
 0000:0203DF58       GFL_HIDGetTypedKeys
 0000:0203DF70       GCTX_HIDGetTypedKeys
 0000:0203DFA4       GFL_HIDClearKeypadState
 0000:0203E17C       nullsub_7
 0000:0203E4CC       loadWifiStrengthIcons
 0000:0203E6E4       getObjBank
 0000:0203E778       copyEmptyOAM
 0000:02040E38       nullsub_62
 0000:020412FC       nullsub_63
 0000:020413F0       nullsub_66
 0000:0204146C       nullsub_64
 0000:02041470       nullsub_65
 0000:02041E24       nullsub_67
 0000:02041E5C       nullsub_68
 0000:02041E60       nullsub_69
 0000:02041E64       nullsub_70
 0000:0204247C       nullsub_8
 0000:020426BA       jpt_20426B8
 0000:02042728       def_20426B8
 0000:02042ED0       allocConfigDSSoftwareFeature
 0000:0204321A       jpt_2043218
 0000:020432C2       def_2043218
 0000:02043E6C       initTableArea
 0000:02043EC4       GFL_STD_MemCmp
 0000:02043EEC       GFL_STD_StrLen
 0000:02043F00       _STD_CompareNString
 0000:02043F08       GFL_RandomUpdateMT
 0000:02043F58       GFL_RandomMT
 0000:0204406C       seed
 0000:02044088       getCRC16
 0000:020440C4       buildSeed
 0000:0204412C       addUpDataStream
 0000:02044148       decryptData
 0000:02044174       _decryptData
 0000:0204417C       crypt_SAV_BVideo_MG_misc_data
 0000:0204423C       RTC_GetCachedDateTime
 0000:02044264       RTC_GetCachedTime
 0000:02044278       RTC_GetCachedDate
 0000:0204428C       RTC_ConvertDaySecondsCached
 0000:020442B0       RTC_ConvertSecondsCached
 0000:020442B8       pRTC_DATE_CACHE
 0000:020442BC       pRTC_TIME_CACHE
 0000:0204442C       v2
 0000:020444D0       GFL_BGSysCreate
 0000:02044554       GFL_BGSysFree
 0000:02044590       GFL_BGSysAllocChar
 0000:02044650       GFL_BGSysAllocCharAt
 0000:02044694       GFL_BGSysFreeCharMemory
 0000:020446D2       jpt_20446D0
 0000:02044734       def_20446D0
 0000:0204473C       GFL_BGSysSetLCDConfig
 0000:02044774       GFL_BGSysSetLCDConfigForEngine
 0000:02044798       GFL_BGSysCreateBG
 0000:020447BE       jpt_20447BC
 0000:02044A70       def_20447BC
 0000:02044BB0       GFL_BGSysReleaseBG
 0000:02044BE4       GFL_BGSysSet3DBGPriority
 0000:02044C04       GFL_BGSysSetBGPriority
 0000:02044C14       jpt_2044C12
 0000:02044CA2       def_2044C12
 0000:02044CC4       GFL_BGSysSetBGEnabled
 0000:02044CD6       jpt_2044CD4
 0000:02044D24       def_2044CD4
 0000:02044D28       GFL_BGSysMoveBG
 0000:02044D58       jpt_2044D56
 0000:02044E5C       def_2044D56
 0000:02044E8C       GFL_BGSysGetBGOffsetX
 0000:02044EA0       GFL_BGSysGetBGOffsetY
 0000:02044EB4       GFL_BGSysSetBGTransformEx
 0000:02044EDC       GFL_BGSysSetBGTransform
 0000:02044EF0       jpt_2044EEE
 0000:02044F6C       def_2044EEE
 0000:02044F74       addr
 0000:02044F84       GFL_BGSysTransferUncomp
 0000:02044FBC       GFL_BGSysLoadScr
 0000:02044FDC       GFL_BGSysLoadScrCore
 0000:02045080       GFL_BGSysBufferScrDefault
 0000:0204508C       GFL_BGSysBufferScr
 0000:020450AC       GFL_BGSysLoadChar
 0000:020450D4       GFL_BGSysLoadCharDynamic
 0000:020450F8       GFL_BGSysClearCharCore
 0000:02045144       GFL_BGSysFillChar
 0000:02045160       jpt_204515E
 0000:020451F8       def_204515E
 0000:02045290       GFL_BGSysFreeFilledChar
 0000:020452A8       jpt_20452A6
 0000:02045346       def_20452A6
 0000:0204534C       GFL_BGSysUploadStdPalette
 0000:0204537C       GFL_BGSysResetStdPalette
 0000:02045394       GFL_BGSysConvCoordsToTileIndex
 0000:020453A4       jpt_20453A2
 0000:02045402       def_20453A2
 0000:02045404       GFL_BGSysConvCoordsToTileIndexEx
 0000:02045444       jpt_2045442
 0000:020454CE       def_2045442
 0000:020454D8       GFL_BGSysLoadScrAreaAll
 0000:02045500       GFL_BGSysLoadScrArea
 0000:02045598       GFL_BGSysLoadScrAreaLarge
 0000:02045630       GFL_BGSysFillScrArea
 0000:02045698       GFL_BGSysSetScrPaletteNo
 0000:02045734       GFL_BGSysClearBG
 0000:02045744       GFL_BGSysClearChar
 0000:02045764       GFL_BGSysClearScr
 0000:02045790       GFL_BGSysFillScr
 0000:020457BC       GFL_BGSysFillScrAsync
 0000:020457E8       GFL_BGSysGetBGCharAddress
 0000:020457FA       jpt_20457F8
 0000:0204583A       def_20457F8
 0000:02045840       GFL_BGSysIsScrHeapExists
 0000:02045854       GFL_BGSysGetBGOffsetX2
 0000:02045868       GFL_BGSysGetBGOffsetY2
 0000:0204587C       GFL_BGSysGetBGMode
 0000:02045890       GFL_BGSysGetBGColorPaletteMode
 0000:020458A4       GFL_BGSysGetBGBytesPerTile
 0000:020458B8       GFL_BGSysGetBGPriority
 0000:020458CE       jpt_20458CC
 0000:02045A5E       def_20458CC
 0000:02045A88       GFL_BGSysUpdate
 0000:02045AAC       GFL_BGSysLoadQueuedScreens
 0000:02045BA8       GFL_BGSysQueueScrLoad
 0000:02045BC0       GFL_BGSysFlushTransform
 0000:02045E48       GFL_BGSysMoveBGReq
 0000:02045E74       GFL_BGSysRotateBGReq
 0000:02045EA0       GFL_BGSysScaleBGReq
 0000:02045ECC       GFL_BGSysAdjustBGOriginReq
 0000:02046090       GFL_BGSysCalcScreenSizeMode
 0000:02046104       GFL_BGSysGetTileDimensions
 0000:02046114       jpt_2046112
 0000:02046152       def_2046112
 0000:02046154       GFL_BGSysAdjustBGMoveCoord
 0000:02046164       jpt_2046162
 0000:02046196       def_2046162
 0000:02046198       GFL_BGSysSetBGTransformIdentity
 0000:020461C4       GFL_BGSysUploadScr
 0000:020461E6       jpt_20461E4
 0000:02046254       def_20461E4
 0000:02046258       GFL_BGSysLoadCharCore
 0000:020462C8       GFL_BGSysUploadChar
 0000:020462EA       jpt_20462E8
 0000:02046358       def_20462E8
 0000:0204635C       GFL_BGSysLoadScrArea_TEXT
 0000:020464D4       GFL_BGSysLoadScrArea_AFFINE
 0000:02046634       GFL_BGSysLoadScrArea_EXTENDED
 0000:020467A8       GFL_BGSysFillScrArea_TEXT
 0000:02046858       GFL_BGSysFillScrArea_AFFINE
 0000:020468CC       GFL_BGSysFillScrArea_EXTENDED
 0000:020469A8       GFL_BGSysAllocScreen
 0000:020469BC       jpt_20469BA
 0000:02046A22       def_20469BA
 0000:02046A28       GFL_BGSysFreeScreenMemory
 0000:02046A3C       jpt_2046A3A
 0000:02046AA2       def_2046A3A
 0000:02046B54       GFL_BGSysAdjustBGRotateCoord
 0000:02046B78       GFL_BGSysAdjustBGScaleCoord
 0000:02046B88       jpt_2046B86
 0000:02046BC0       def_2046B86
 0000:02046BC4       GFL_BGSysAdjustBGOriginCoord
 0000:02046BD6       jpt_2046BD4
 0000:02046C08       def_2046BD4
 0000:02046C0C       GFL_BGSysInitVRAM
 0000:02046C6C       GFL_BGSysSetVRAMBanks
 0000:02046CFC       GFL_BGSysDisableBGsA
 0000:02046D0C       GFL_BGSysDisableOBJA
 0000:02046D1C       GFL_BGSysDisableAllA
 0000:02046D28       GFL_BGSysSetBGEnabledA
 0000:02046D64       GFL_BGSysSetEnabledBGsA
 0000:02046D84       GFL_BGSysDisableBGsB
 0000:02046D94       GFL_BGSysDisableOBJB
 0000:02046DA4       GFL_BGSysDisableAllB
 0000:02046DB0       GFL_BGSysSetBGEnabledB
 0000:02046DEC       GFL_BGSysSetEnabledBGsB
 0000:02046E0C       GFL_BGSysEnableEngines
 0000:02046E24       GFL_BGSysSetDisplayLayout
 0000:02046E3C       GFL_BGSysGetEnabledBGsA
 0000:02046E48       GFL_BGSysGetEnabledBGsB
 0000:02046E54       GFL_BitmapCreate
 0000:02046EA0       GFL_BitmapWrap
 0000:02046ED4       GFL_BitmapWrapVRAM
 0000:02046F08       GFL_BitmapFree
 0000:02046F20       GFL_BitmapGetPixelData
 0000:02046F24       GFL_BitmapGetWidth
 0000:02046F28       GFL_BitmapGetHeight
 0000:02046F2C       GFL_BitmapCalcPixelDataSize
 0000:02046F44       GFL_BitmapCopy
 0000:02046F68       GFL_G2DIOLoadBitmap
 0000:02046FD8       GFL_BitmapConvFromCHAR
 0000:0204702C       GFL_BitmapGetBytesPerTile
 0000:02047034       GFL_BitmapCopyArea
 0000:020470F8       GFL_BitmapCopyAreaRebased
 0000:02047124       GFL_BitmapFillArea
 0000:02047168       GFL_BitmapFill
 0000:02047194       GFL_BitmapCopyArea_IDX4
 0000:020473FC       GFL_BitmapCopyArea_IDX8
 0000:02047618       GFL_BitmapCopyAreaRebased_IDX8
 0000:02047868       GFL_BitmapCopyArea_IDX4_VRAM
 0000:02047B04       GFL_BitmapCopyArea_IDX8_VRAM
 0000:02047D00       GFL_BitmapFillArea_IDX4
 0000:02047DC0       GFL_BitmapFillArea_IDX8
 0000:02047E54       GFL_BitmapFillArea_IDX4_VRAM
 0000:02047F4C       GFL_BitmapFillArea_IDX8_VRAM
 0000:02047FE0       GFL_BitmapMakeLinear
 0000:020480AC       BmpWin_InitAllocator
 0000:020480D4       BmpWin_FreeAllocator
 0000:020480EC       BmpWin_CreateDynamic
 0000:02048150       BmpWin_CreateStatic
 0000:020481AC       BmpWin_CreateCore
 0000:0204823C       BmpWin_Free
 0000:02048270       BmpWin_FlushChar
 0000:02048298       BmpWin_FlushMap
 0000:02048500       BmpWin_GetBGIndex
 0000:0204850C       BmpWin_GetWidth1
 0000:02048510       BmpWin_GetHeight2
 0000:02048514       BmpWin_GetPosX
 0000:02048518       BmpWin_GetPosY
 0000:02048520       BmpWin_GetBitmap
 0000:02048538       GFL_StrBufSetTerminator
 0000:02048544       GFL_StrBufIsValid
 0000:0204855C       GFL_StrBufCreate
 0000:02048590       GFL_StrBufFree
 0000:0204859C       GFL_StrBufClear
 0000:020485AC       GFL_StrBufCopy
 0000:020485D0       GFL_StrBufClone
 0000:020485E8       GFL_StrBufCmp
 0000:02048624       GFL_StrBufGetCharCount
 0000:02048628       GFL_StrBufInsertTerminator
 0000:02048640       GFL_StrBufLoadString
 0000:02048684       GFL_StrBufLoadFixedString
 0000:020486C4       GFL_StrBufCopyString
 0000:020486E4       GFL_StrBufStoreString
 0000:0204871C       GFL_StrBufGetStringPtr
 0000:02048720       GFL_StrBufGetTerminator
 0000:0204872C       GFL_StrBufUncompressNone
 0000:02048760       GFL_StrBufAppend
 0000:02048788       GFL_MsgSysLoadData
 0000:02048800       GFL_MsgDataFree
 0000:02048828       GFL_MsgDataCreateFromHandle
 0000:02048864       GFL_MsgDataLoadStrbuf
 0000:02048944       GFL_MsgDataDecryptStrbuf
 0000:02048968       GFL_MsgDataDecryptString
 0000:020489B8       GFL_MsgDataLoadStrbufNew
 0000:02048A14       GFL_MsgDataGetLineCount
 0000:02048A1C       GFL_MsgDataLoadRawStr
 0000:02048AD8       GFL_MsgDataCreateFileHandle
 0000:02048B2C       GFL_MsgDataPreloadFull
 0000:02048B70       GFL_MsgDataUpdateLanguage
 0000:02048B90       GFL_MsgDataInitValidLangID
 0000:02048BB0       GFL_MsgDataGetDefaultLangID
 0000:02048BBC       GFL_SystemFontInit
 0000:02048C58       GFL_SystemFontGetGlyph
 0000:02048CC0       GFL_SystemFontUnpackBits
 0000:02048CE8       GFL_SystemFontGetHeight
 0000:02048CF8       GFL_SystemFontGetTabSize
 0000:02048CFC       GFL_SystemFontSetColorIndices
 0000:02048D54       GFL_G3DSysCreate
 0000:02048F44       ppG3D_SYSTEM
 0000:02048F70       GFL_G3DSysFree
 0000:02048FB0       GFL_G3DSysMtxGetProjection
 0000:02048FE8       GFL_G3DSysMtxSetProjection
 0000:0204912C       GFL_G3DSysLightSet
 0000:02049178       GFL_G3DSysMtxGetViewLookAt
 0000:020491B4       GFL_G3DSysMtxSetViewLookAt
 0000:02049238       y
 0000:02049240       GFL_G3DSysSetSwapBufferParams
 0000:02049274       GFL_G3DSysMtxSetFlushMode
 0000:020492B4       NNS_G3DFlushProjection
 0000:020492BC       GFL_G3DResGetAllocSize
 0000:020492C0       GFL_G3DResBindData
 0000:020492E8       GFL_G3DResSetup
 0000:02049370       GFL_G3DSysReadArcSysResource
 0000:020493B0       GFL_G3DSysReadArcToolResource
 0000:020493F0       GFL_G3DSysReadFSResource
 0000:02049430       GFL_G3DResFree
 0000:0204945C       GFL_G3DResGetResData
 0000:02049460       GFL_G3DResCheckType
 0000:020494BC       GFL_G3DResTrimTexData
 0000:020494D8       GFL_G3DResUploadTexData
 0000:02049544       GFL_G3DResUploadAndReleaseTexData
 0000:02049560       GFL_G3DResFreeTexData
 0000:020495CC       GFL_G3DResSetupTexData
 0000:0204961C       GFL_G3DResUploadTexDataCore
 0000:0204964C       GFL_G3DResGetTexData
 0000:02049658       GFL_G3DResAllocTexMem
 0000:020496AC       GFL_G3DResAllocPltMem
 0000:020496E0       GFL_G3DResIsTexUploadDone
 0000:02049704       GFL_G3DResGetTexVRAMHandle
 0000:02049728       GFL_G3DResGetPltVRAMHandle
 0000:02049740       GFL_G3DResGetTexImageData
 0000:0204974C       GFL_G3DResGetTexPaletteData
 0000:02049758       GFL_G3DMdlCreate
 0000:02049800       GFL_G3DMdlFree
 0000:0204982C       GFL_G3DMdlGetMdlResource
 0000:02049830       GFL_G3DMdlGetTexResource
 0000:02049834       GFL_G3DMdlGetEngineModel
 0000:02049838       GFL_G3DAnmCreate
 0000:020498B4       GFL_G3DAnmFree
 0000:020498E0       GFL_G3DAnmGetRenderObj
 0000:020498E4       GFL_G3DActorCreate
 0000:02049960       GFL_G3DActorFree
 0000:02049990       GFL_G3DActorGetMdl
 0000:02049994       GFL_G3DActorGetAnm
 0000:0204999C       GFL_G3DActorGetAnmCount
 0000:020499A0       GFL_G3DActorBindAnm
 0000:020499C0       GFL_G3DActorUnbindAnm
 0000:020499E0       GFL_G3DActorResetAnmFrame
 0000:020499F8       GFL_G3DActorGetAnmFrame
 0000:02049A10       GFL_G3DActorSetAnmFrame
 0000:02049A38       GFL_G3DActorGetAnmFrameCount
 0000:02049A54       GFL_G3DActorStepAnmFrame
 0000:02049A90       GFL_G3DActorStepAnmFrameLoop
 0000:02049AC4       GFL_G3DSysReset
 0000:02049ACC       GFL_G3DSysReqSwapBuffers
 0000:02049AE4       GFL_G3DSysCheckSwapBuffers
 0000:02049B1C       GFL_G3DSysMtxViewFlush
 0000:02049B88       GFL_G3DSysDrawObj
 0000:02049BD8       GFL_G3DSysDrawObjBBoxCull
 0000:02049C38       GFL_G3DActorTestBBox
 0000:02049CB4       TestModelBoundingBox
 0000:02049D08       GFL_G3DSysDispatchDraw
 0000:02049D40       GFL_G3DSysResetGeometryCounter
 0000:02049D50       GFL_G3DMgrCreate
 0000:02049E08       GFL_G3DMgrFree
 0000:02049E2C       GFL_G3DMgrNewScene
 0000:02049E98       GFL_G3DMgrNewSceneFast
 0000:02049F04       GFL_G3DMgrNewSceneFastEx
 0000:02049F78       GFL_G3DMgrDeleteScene
 0000:02049FA0       GFL_G3DMgrLoadResources
 0000:0204A00C       jpt_204A00A
 0000:0204A088       def_204A00A
 0000:0204A0A0       GFL_G3DMgrProcessArcLoadReq
 0000:0204A0DC       GFL_G3DMgrFreeSceneResources
 0000:0204A130       GFL_G3DMgrLoadActors
 0000:0204A19E       jpt_204A19C
 0000:0204A212       def_204A19C
 0000:0204A3EC       GFL_G3DMgrLoadActorsFast
 0000:0204A524       GFL_G3DMgrFreeSceneActors
 0000:0204A5CC       GFL_G3DMgrGetSceneResCount
 0000:0204A5D4       GFL_G3DMgrGetSceneFirstActorIdx
 0000:0204A5DC       GFL_G3DSceneGetNodeActorCount
 0000:0204A5E4       GFL_G3DMgrGetResource
 0000:0204A5EC       GFL_G3DMgrGetActor
 0000:0204A5F4       GFL_G3DCameraCreate
 0000:0204A65C       GFL_G3DCameraFree
 0000:0204A664       GFL_G3DCameraFlush
 0000:0204A678       GFL_G3DCameraGetLookatPos
 0000:0204A688       GFL_G3DCameraSetLookatPos
 0000:0204A698       GFL_G3DCameraGetLookatUpVector
 0000:0204A6A8       GFL_G3DCameraSetLookatUpVector
 0000:0204A6B8       GFL_G3DCameraGetLookatTarget
 0000:0204A6C8       GFL_G3DCameraSetLookatTarget
 0000:0204A6D8       GFL_G3DCameraGetProjectionZNear
 0000:0204A6E0       GFL_G3DCameraSetProjectionZNear
 0000:0204A6E8       GFL_G3DCameraSetProjectionZFar
 0000:0204A6F0       GFL_G3DCameraGetProjectionType
 0000:0204A6F4       GFL_G3DCameraPerspectiveSetFOVSin
 0000:0204A6F8       GFL_G3DCameraPerspectiveGetFOVCos
 0000:0204A700       GFL_G3DCameraPerspectiveSetFOVCos
 0000:0204A704       GFL_G3DCameraOrthoGetTop
 0000:0204A70C       GFL_G3DCameraOrthoSetTop
 0000:0204A710       GFL_G3DCameraOrthoGetBottom
 0000:0204A718       GFL_G3DCameraOrthoSetBottom
 0000:0204A71C       GFL_G3DLightCreate
 0000:0204A768       GFL_G3DLightFree
 0000:0204A770       GFL_G3DLightFlush
 0000:0204A78C       GFL_G3DLightGetDirVector
 0000:0204A7A0       GFL_G3DLightSetDirVector
 0000:0204A7B8       GFL_G3DLightGetColor
 0000:0204A7C4       GFL_G3DLightSetColor
 0000:0204A7D0       GFL_ArcSysInit
 0000:0204A7DC       ppARC_SYSTEM
 0000:0204A7E0       GFL_ArcSysReadImpl
 0000:0204A814       GFL_ArcSysReadHeapNewImpl
 0000:0204A864       GFL_ArcSysInitArcHandle
 0000:0204A89C       ArchiveMoveImageTop
 0000:0204A954       GFL_ArcSysRead
 0000:0204A960       GFL_ArcSysReadHeapNew
 0000:0204A96C       GFL_ArcSysReadRange
 0000:0204A97C       GFL_ArcSysReadHeapNewRange
 0000:0204A98C       GFL_ArcSysReadHeapNewDirect
 0000:0204A9E4       GFL_ArcSysGetDataMax
 0000:0204AA30       GFL_ArcSysGetDataLength
 0000:0204AA5C       GFL_ArcSysCreateFileHandle
 0000:0204AA8C       GFL_ArcSysCreateMemoryHandle
 0000:0204AAC8       GFL_ArcToolInit
 0000:0204AB38       GFL_ArcToolFree
 0000:0204AB48       GFL_ArcToolReadHeapNew
 0000:0204ABD0       GFL_ArcToolRead
 0000:0204AC38       GFL_ArcToolGetDataLength
 0000:0204AC84       GFL_ArcToolReadRange
 0000:0204ACEC       GFL_ArcToolCopyDataOfs
 0000:0204AD40       GFL_ArcToolGetDataOfs
 0000:0204AD90       GFL_ArcToolReadRaw
 0000:0204ADA0       GFL_ArcToolSeek
 0000:0204ADAC       GFL_ArcToolGetDataMax
 0000:0204ADB4       GFL_BGSysLoadNCGRStatic
 0000:0204ADD4       GFL_BGSysLoadArcNCGRStatic
 0000:0204ADF4       GFL_BGSysLoadNCGRStaticCore
 0000:0204AE2C       GFL_BGSysLoadNCGRDynamic
 0000:0204AE68       GFL_BGSysLoadArcNCGRDynamic
 0000:0204AEA4       GFL_BGSysLoadNCGRDynamicCore
 0000:0204AEE4       loadOBJCharToVram
 0000:0204AF00       unpackAndLoadOBJChar
 0000:0204AF44       loadBGScrToVramByNarcNoReserveNegAlign
 0000:0204AF7C       loadBGScrToVramByFileNoReserveNegAlign
 0000:0204AFB4       loadBGScrToVramByNarcNoReserve
 0000:0204AFDC       GFL_G2DIOLoadNSCRSync
 0000:0204B004       GFL_G2DIOLoadNSCRAsync
 0000:0204B02C       GFL_BGSysLoadNSCR
 0000:0204B0E4       GFL_BGSysLoadNCLRDefault
 0000:0204B100       GFL_G2DIOLoadArcNCLRDefault
 0000:0204B11C       GFL_G2DIOLoadNCLR
 0000:0204B150       GFL_G2DIOLoadArcNCLR
 0000:0204B184       GFL_BGSysLoadNCLR
 0000:0204B1FA       jpt_204B1F8
 0000:0204B272       def_204B1F8
 0000:0204B290       GFL_G2DIOReadBGNCGR
 0000:0204B2B8       GFL_G2DIOReadBGNCGRArc
 0000:0204B2E0       GFL_G2DIOReadOBJNCGR
 0000:0204B308       GFL_G2DIOReadOBJNCGRArc
 0000:0204B330       GFL_G2DIOReadNSCR
 0000:0204B358       GFL_G2DIOReadNSCRArc
 0000:0204B380       GFL_G2DIOReadNCLR
 0000:0204B3A8       GFL_G2DIOReadNCLRArc
 0000:0204B3D0       GFL_G2DIOReadNCER
 0000:0204B3F8       GFL_G2DIOReadNCERArc
 0000:0204B420       GFL_G2DIOReadNANR
 0000:0204B448       GFL_G2DIOReadNANRArc
 0000:0204B470       GFL_G2DIOReadNMCR
 0000:0204B498       GFL_G2DIOReadNMCRArc
 0000:0204B4C0       GFL_G2DIOReadNMAR
 0000:0204B4E8       GFL_G2DIOReadNMARArc
 0000:0204B510       GFL_ArcSysReadHeapNewLZ
 0000:0204B59C       GFL_ArcSysReadHeapNewLZGetLen
 0000:0204B62C       GFL_ArcToolReadHeapNewLZ
 0000:0204B63C       GFL_ArcToolReadHeapNewLZGetLen
 0000:0204B6D4       ClActSys_Create
 0000:0204CC78       v1
 0000:0204CE20       pTaskRegisterFunc
 0000:0204D3B8       setSeqToMultiCellAnim
 0000:0204D6B8       ClActVRAMManager_Init
 0000:0204DCD0       GFL_TextPrintInit
 0000:0204DD00       GFL_TextPrintDrawIndices
 0000:0204DE00       GFL_TextPrintDrawString
 0000:0204DE3C       GFL_TextPrintStringToIndices
 0000:0204DE94       GFL_TextPrintASCIIToIndex
 0000:0204DF0C       GFL_TextPrintSJISToIndex
 0000:0204DFD0       GFL_FadeCreate
 0000:0204E000       GFL_FadeUpdate
 0000:0204E064       GFL_FadeGetUpdateFreq
 0000:0204E070       GFL_FadeSetUpdateFreq
 0000:0204E07C       GFL_FadeSetUpdateFreqOne
 0000:0204E08C       GFL_FadeSet
 0000:0204E10C       GFL_FadeIsRunning
 0000:0204E124       GFL_FadeFlush
 0000:0204E188       GFL_G3DDual3DInit
 0000:0204E1BC       GFL_G3DDual3DInitOAM
 0000:0204E26C       GFL_G3DDual3DFree
 0000:0204E28C       GFL_G3DDual3DGetRenderDisp
 0000:0204E298       GFL_G3DDual3DRaiseNeedRenderFlag
 0000:0204E2A8       GFL_G3DDual3DExecVBlank
 0000:0204E2EC       GFL_G3DDual3DSetupTopScreen
 0000:0204E360       GFL_G3DDual3DSetupBottomScreen
 0000:0204E3BC       BlActScene_Create
 0000:0204E498       BlActScene_SetCustomNormal
 0000:0204E4B4       BlActScene_SetScale
 0000:0204E4C4       BlActScene_SetColDiffuse
 0000:0204E4CC       BlActScene_SetColAmbient
 0000:0204E4D4       BlActScene_SetColSpecular
 0000:0204E4DC       BlActScene_SetColEmissive
 0000:0204E4E4       BlActScene_SetBasePolyID
 0000:0204E4EC       BlActScene_SetGeomOrigin
 0000:0204E4F4       BlActScene_SetTexcoordOffset
 0000:0204E524       BlActScene_GetAvailMatSlotIdx
 0000:0204E55C       BlActMaterial_BindTexture
 0000:0204E598       BlActMaterial_Set
 0000:0204E5F8       BlActScene_AddMaterialNewTex
 0000:0204E690       BlActScene_AddMaterialExistTex
 0000:0204E710       BlActScene_TrimMatTex
 0000:0204E738       BlActScene_FreeMaterial
 0000:0204E8F8       BlActScene_AddNewActor
 0000:0204E9FC       BlActScene_ClearActorMaterial
 0000:0204EA54       BlActScene_SetActorPos
 0000:0204EAF4       BlActScene_SetActorHidden
 0000:0204EB24       BlActScene_EnableActorLight
 0000:0204EB4C       BlActScene_DisableActorLight
 0000:0204EBDC       BlActScene_Draw
 0000:0204F124       BlActSys_Create
 0000:0204F1FC       BlActSys_Free
 0000:0204F250       BlActSys_GetScene
 0000:0204F270       BlActHandle_Reset
 0000:0204F290       BlActSys_ExecMatLoadRequests
 0000:0204F36C       BlActSys_FreeMaterials
 0000:0204F3F0       BlActSys_ExecActorRequests
 0000:0204F4AC       BlActSys_DeleteActors
 0000:0204F4F8       BlActSys_UpdateActors
 0000:0204F684       BlActSys_Draw
 0000:0204F6C4       BlActSys_SetActorLight
 0000:0204F788       BlActSys_GetMatByActor
 0000:02050010       pDest
 0000:020501A0       param3
 0000:0205063C       MAT2_SetScaleRot
 0000:020507B0       vecfx_mul
 0000:020507D8       vecfx_div
 0000:02050800       MAT3_RotationEulerZYX
 0000:02050870       MAT3_RotationDir
 0000:02051688       def_2051648
 0000:0205174C       def_205170C
 0000:020522D0       nullsub_71
 0000:02054F44       num1
 0000:02055748       def_205503C
 0000:02056B6C       src
 0000:02056D0C       poly
 0000:02056F58       dest
 0000:020584A4       def_2058400
 0000:02059894       def_2059814
 0000:02059F1C       def_2059D84
 0000:0205AF4C       def_205AEA8
 0000:0205B054       def_205AFE8
 0000:0205B758       def_205B720
 0000:0205C1D4       def_205BF5C
 0000:0205C3A0       def_205C2EC
 0000:0205CFE4       src2
 0000:0205D6F0       def_205D64C
 0000:0205DEFC       def_205DE64
 0000:0205EBD8       SetHeapBaseInfo
 0000:0205EC30       list
 0000:0205EC44       GetExistingExpHeapHeaderBounds
 0000:0205EC60       UnlinkExpHeapHeader
 0000:0205EC7C       AppendHeaderToExpHeapLL
 0000:0205EC9C       SetupExpHeapHeader
 0000:0205ECB8       InitHeapBaseEXPH
 0000:0205ED00       signature
 0000:0205ED08       AllocExpHeapCore
 0000:0205EE08       AllocExpHeapHead
 0000:0205EE84       AllocExpHeapTail
 0000:0205EEF8       ExpHeap_MarkFreeBounds
 0000:0205EF84       InitHeapBaseSafe
 0000:0205EFAC       AllocOnHeapBase
 0000:0205EFCC       ExpHeap_ResizeBlock
 0000:0205F0B4       FreeFromHeapBase
 0000:0205F0E0       HeapBase_GetFreeSize
 0000:0205F0F8       HeapBase_GetHighestAllocatableSize
 0000:0205F170       HeapBase_DumpMemory
 0000:0205F190       HeapBlock_GetSize
 0000:0205F1A8       InitHeapBaseFRMH
 0000:0205F390       ExpHeapAllocator_Malloc
 0000:0205F3E0       SystemHeapAllocator_Malloc
 0000:0205F400       AllocatorBase_Malloc
 0000:0205F418       CreateExpHeapAllocator
 0000:0205F754       gfxUploadQueueGetNextIndex
 0000:0205F768       gfxUploadQueueIsFull
 0000:0205F778       gfxUploadQueueIsEmpty
 0000:0205F788       gfxUploadFunc_Tex3D
 0000:0205F7A4       gfxUploadFunc_Plt3D
 0000:0205F7C0       gfxUploadFunc_RearPlaneImageA
 0000:0205F7D8       gfxUploadFunc_RearPlaneImageB
 0000:0205F7F0       gfxUploadFunc_BGChar0A
 0000:0205F7F8       gfxUploadFunc_BGChar1A
 0000:0205F800       gfxUploadFunc_BGChar2A
 0000:0205F808       gfxUploadFunc_BGChar3A
 0000:0205F810       gfxUploadFunc_BGScreen0A
 0000:0205F818       gfxUploadFunc_BGScreen1A
 0000:0205F820       gfxUploadFunc_BGScreen2A
 0000:0205F828       gfxUploadFunc_BGScreen3A
 0000:0205F830       gfxUploadFunc_BGScreen2AExt
 0000:0205F838       gfxUploadFunc_BGScreen3AExt
 0000:0205F840       gfxUploadFunc_StdPltObjA
 0000:0205F848       gfxUploadFunc_StdPltBGA
 0000:0205F850       gfxUploadFunc_ExtPltObjA
 0000:0205F86C       gfxUploadFunc_ExtPltBGA
 0000:0205F888       gfxUploadFunc_OAMA
 0000:0205F890       gfxUploadFunc_ObjCharA
 0000:0205F898       gfxUploadFunc_BGChar0B
 0000:0205F8A0       gfxUploadFunc_BGChar1B
 0000:0205F8A8       gfxUploadFunc_BGChar2B
 0000:0205F8B0       gfxUploadFunc_BGChar3B
 0000:0205F8B8       gfxUploadFunc_BGScreen0B
 0000:0205F8C0       gfxUploadFunc_BGScreen1B
 0000:0205F8C8       gfxUploadFunc_BGScreen2B
 0000:0205F8D0       gfxUploadFunc_BGScreen3B
 0000:0205F8D8       gfxUploadFunc_BGScreen2BExt
 0000:0205F8E0       gfxUploadFunc_BGScreen3BExt
 0000:0205F8E8       gfxUploadFunc_StdPltObjB
 0000:0205F8F0       gfxUploadFunc_StdPltBGB
 0000:0205F8F8       gfxUploadFunc_ExtPltObjB
 0000:0205F914       gfxUploadFunc_ExtPltBGB
 0000:0205F930       gfxUploadFunc_OAMB
 0000:0205F938       gfxUploadFunc_ObjCharB
 0000:0205F940       gfxUpload
 0000:0205F964       gfxUploadQueueResetCore
 0000:0205F974       gfxNotifyUploadRequested
 0000:0205F998       gfxUploadQueueGetCurrentRequest
 0000:0205F9A4       gfxAllocUploadRequest
 0000:0205F9B0       gfxUploadQueueAdvance
 0000:0205F9D4       gfxUploadQueueBind
 0000:0205F9EC       gfxUploadQueueReset
 0000:0205F9FC       gfxExecUploadRequests
 0000:0205FA3C       gfxUploadAsync
 0000:0205FA7C       pQueue
 0000:0205FD94       pMan
 0000:0205FF18       pMgr
 0000:0205FF20       ppBlockPoolList
 0000:02060074       magic
 0000:020602A4       NNS_G2DPrepareObjChar
 0000:020602CC       NNS_G2DRelocateObjChar
 0000:020602D4       NNS_G2DPrepareBGChar
 0000:020602FC       NNS_G2DRelocateBGChar
 0000:02060304       RelocatePaletteResGetDataPtr
 0000:0206035C       NNS_G2DRelocatePLTTHeader
 0000:02060364       NNS_G2DPrepareScreen
 0000:02060384       NNS_G2DFindDataBlock
 0000:02060D9C       jpt_2060D9A
 0000:02060DCC       def_2060D9A
 0000:02060DE8       jpt_2060DE6
 0000:02060E18       def_2060DE6
 0000:02060EA4       jpt_2060EA2
 0000:02060ED4       def_2060EA2
 0000:02060EF0       jpt_2060EEE
 0000:02060F20       def_2060EEE
 0000:020628FC       CellMatrixTranslate
 0000:02062994       CellMatrixScale
 0000:02062A34       jpt_2062A32
 0000:02062A48       def_2062A32
 0000:02062A64       CellMatrixRotate
 0000:02062AE6       jpt_2062AE4
 0000:02062AFA       def_2062AE4
 0000:02062B24       MAT32_Mul
 0000:02063AA0       jpt_2063A9E
 0000:02063ABA       def_2063A9E
 0000:02064724       pDrawGlyph
 0000:02064FB8       NNS_G3DAnimationCalcAllocSize
 0000:02064FF0       NNS_G3DAnimationCreate
 0000:02065054       NNS_G3DModelAttachResource
 0000:02065088       NNS_G3DAnimationLink
 0000:020650F4       NNS_G3DAnimationRegistTargets
 0000:02065138       NNS_G3DAnimationBind
 0000:02065208       NNS_G3DResTexGetTexDataSize
 0000:02065228       NNS_G3DResTexSetGfdKeys
 0000:02065238       NNS_G3DResTexUploadTex
 0000:020652E4       NNS_G3DResTexGetPaletteDataSize
 0000:020652F4       NNS_G3DResTexSetPltGfdKey
 0000:020652F8       NNS_G3DResTexUploadPlt
 0000:020656C4       NNS_G3DRenderStateInit
 0000:020657B8       NNS_G3DFlushRenderState
 0000:020657E0       NNS_G3DFlushViewProjection
 0000:02065820       opcode
 0000:02065824       args
 0000:02065834       NNS_G3DFlushModelViewProjection
 0000:020658D0       NNS_G3DRenderTranslationSet
 0000:020658F4       NNS_G3DRenderScaleSet
 0000:02065918       NNS_G3DSetLightVector
 0000:02065948       NNS_G3DSetLightColor
 0000:02065958       NNS_G3DSetMatDifAmb
 0000:02065978       NNS_G3DSetMatSpeEmi
 0000:02065998       NNS_G3DGetInvViewMatrix
 0000:02065B6C       NNS_G3DPrecalcTempMVMatrix
 0000:02065B94       a
 0000:02065BA8       NNS_G3DGetTempMVMatrix
 0000:02065BD0       NNS_G3DGetTempInvMVMatrix
 0000:02065C38       ab
 0000:02065C3C       NNS_G3DGetViewport
 0000:02066170       NNS_G3DRenderCodeExec
 0000:020661A4       NNS_G3DDrawCore
 0000:0206632C       NNS_G3DDraw
 0000:020663BC       NNS_G3DRenderFuncNop
 0000:020663D0       NNS_G3DRenderFuncReturn
 0000:020663E8       NNS_G3DRenderFuncSetVisGroup
 0000:020664FC       NNS_G3DRenderFuncLoadMatrix
 0000:02066584       NNS_G3DRenderFuncApplyMaterialDefault
 0000:020668A4       NNS_G3DRenderFuncApplyMaterial
 0000:02066918       NNS_G3DRenderFuncDrawMeshDefault
 0000:020669A8       NNS_G3DRenderFuncDrawMesh
 0000:02066A10       NNS_G3DRenderFuncApplyJointMatrix
 0000:02066D44       NNS_G3DRenderFuncSetBillboardMatrix1
 0000:02066F50       NNS_G3DRenderFuncSetBillboardMatrix2
 0000:020671B0       NNS_G3DRenderFuncApplySmoSkMatrix
 0000:020675F0       NNS_G3DRenderFuncExecFIFOQueue
 0000:0206768C       NNS_G3DRenderFuncGlobalScale
 0000:020676D8       NNS_G3DRenderFuncApplySphereMap
 0000:02067918       NNS_G3DRenderFuncApplyProjectionMap
 0000:02067BC8       NNS_G3DWaitFIFO
 0000:02067C18       NNS_G3DExecDisplayList
 0000:02067D20       arg
 0000:02067D48       NNS_G3DExecOp
 0000:02067DD0       NNS_G3DGetTransforms
 0000:02067E24       NNS_G3DInit
 0000:02067E48       NNS_G3DProject
 0000:02067FC8       m
 0000:020681CC       NNS_G3DAnimationAlloc
 0000:020681EC       NNS_G3DResMdlSetMatLights
 0000:02068238       NNS_G3DResMdlSetMatShadingMode
 0000:02068284       NNS_G3DResMdlSetMatFaceCulling
 0000:020682D0       NNS_G3DResMdlSetMatPolyID
 0000:02068320       NNS_G3DResMdlSetMatAlpha
 0000:02068484       NNS_G3DFind
 0000:020685A0       NNS_G3DFindIndex
 0000:02068688       NNS_G3DResGetMdlBlock
 0000:02068690       NNS_G3DResGetTexBlock
 0000:020686B8       NNS_G3DResGetAnm
 0000:020687DC       NNS_G3DAnimationApply_CA
 0000:02069C90       NNS_G3DAnimationInit_TA
 0000:02069D54       NNS_G3DAnimationInit_TP
 0000:0206B900       sndInit
 0000:0206B95C       sndSync
 0000:0206BA30       nBytes
 0000:0206BA34       info
 0000:0206BAA0       sndEnableChannels
 0000:0206BACC       sndDisableChannels
 0000:0206BB48       sndLockChannel
 0000:0206BB74       sndReleaseChannel
 0000:0206BB84       sndPlaySamples
 0000:0206BC48       sndStopChannel
 0000:0206BC68       sndSetChannelVolume
 0000:0206BC80       sndSetChannelSpeed
 0000:0206BCD8       sndIsChannelPlaying
 0000:0206C050       object
 0000:0206C168       volume
 0000:0206D03C       NNS_FrmHeapCreate
 0000:0206D768       buffer
 0000:0206DB6C       NNS_SndStreamInit
 0000:0206DC24       mutex
 0000:0206DC30       thread
 0000:0206DEB4       stream
 0000:0206E254       commandList
 0000:0206E2A4       NNS_SndStreamThreadInit
 0000:0206ECEC       NNS_SndStreamThreadProc
 0000:0206EDF4       handler
 0000:0206EE0C       cart_read_thread_init
 0000:0206EF0C       rom_get_header
 0000:0206F1B4       cart_read_thread_proc
 0000:0206F87C       task
 0000:0206FC90       p
 0000:020701CA       jpt_20701C8
 0000:02070384       def_20701C8
 0000:02070580       fs_call_syscmd
 0000:02070760       fs_normalize_path
 0000:02070938       fs_create
 0000:0207094C       fs_open
 0000:02070CA8       finit
 0000:02070CF4       fs_resolve_file
 0000:02070D40       fopen_raw
 0000:02070D64       romfs_fopen_id
 0000:02070D94       romfs_fopen_core
 0000:02070DE0       romfs_fclose
 0000:02070DEC       romfs_fgetsize
 0000:02070E20       romfs_ftell
 0000:02070E54       romfs_fseek
 0000:02070E6C       romfs_fread
 0000:02070ECC       romfs_fopen
 0000:02070ED8       GetFileSize
 0000:02070F30       sys_get_overlay_size
 0000:02070F44       sys_prepare_overlay_area
 0000:02070F6C       sys_get_overlay_file_id
 0000:02070F84       sys_read_overlay_header
 0000:02071084       sys_mount_overlay
 0000:02071168       sys_start_overlay
 0000:0207122C       sys_call_ovl_dtors
 0000:020712D0       sys_unmount_overlay
 0000:020712DC       sys_load_overlay
 0000:0207130C       sys_unload_overlay
 0000:020718D8       fs_call_filecmd
 0000:02071964       command
 0000:02071E50       fs_bind
 0000:02071E94       vtable
 0000:02072054       jpt_2072052
 0000:020720B2       def_2072052
 0000:020720B8       fmt
 0000:02072130       proc
 0000:02072134       extfs_fopen
 0000:0207218C       str2
 0000:020721E8       jpt_20721E6
 0000:02072236       def_20721E6
 0000:02072258       arg_8
 0000:0207225C       arg_C
 0000:02072264       fs_init_core
 0000:02072330       name
 0000:02072338       flags
 0000:0207233C       read_func
 0000:02072348       write_func
 0000:0207234C       path
 0000:02072350       fs_set_dma_id
 0000:02072398       romfs_fopen_raw
 0000:020723B4       file_index
 0000:020723BC       fs_init
 0000:020723D8       fs_init_check
 0000:020723E4       MAT2_Identity
 0000:020723FC       MAT2_Scaling
 0000:02072408       MAT2_Rotation
 0000:02072414       MAT2_Scale
 0000:02072478       MAT3_Identity
 0000:0207249C       MAT3_To4x4
 0000:020724D8       MAT3_Scaling
 0000:020724EC       MAT3_Scale
 0000:020725B4       MAT3_RotationX
 0000:020725D0       MAT3_RotationY
 0000:020725EC       MAT3_RotationZ
 0000:02072604       MAT3_RotationAxisAngle
 0000:02072758       MAT3_Invert
 0000:02072A3C       MAT3_Mul
 0000:02072BD0       MAT3_MulVec
 0000:02072C4C       MAT43_Identity
 0000:02072C74       MAT43_To4x4
 0000:02072CA8       MAT43_Scaling
 0000:02072CC0       MAT43_Scale
 0000:02072CF4       MAT43_RotationY
 0000:02072D10       MAT43_RotationAxisAngle
 0000:02072D30       MAT43_Invert
 0000:020730A4       MAT43_Mul
 0000:020732BC       MAT43_MulVec
 0000:02073354       MAT43_LookAt
 0000:02073468       MAT4_Identity
 0000:02073494       MAT4_To4x3
 0000:020734C8       MAT4_Mul
 0000:02073884       MAT4_SetFrustum
 0000:02073ABC       MAT4_SetPerspective
 0000:02073C08       MAT4_SetOrtho
 0000:02073E1C       fx_div
 0000:02073E28       fx_recip
 0000:02073E34       fx_recip_raw
 0000:02073E54       fx_sqrt
 0000:02073E78       fx_invSqrt
 0000:02073EBC       div_get_result
 0000:02073ED4       fx_div_get_result
 0000:02073F00       fx_recip_req
 0000:02073F24       fx_sqrt_req
 0000:02073F4C       fx_sqrt_get_result
 0000:02073F6C       fx_div_req
 0000:02073F90       div32
 0000:02073FB8       mod32
 0000:02073FE0       vecfx_add
 0000:02074000       vecfx_sub
 0000:02074020       vecfx_add16
 0000:02074044       vecfx_dot
 0000:02074080       vecfx_dot16
 0000:020740C4       vecfx_cross
 0000:02074144       vecfx_cross16
 0000:020741AC       vecfx_length
 0000:0207420C       vecfx_length16
 0000:02074280       vecfx_normalize
 0000:02074394       vecfx_normalize16
 0000:020744C0       vecfx_muladd
 0000:02074518       vecfx_dist
 0000:02074594       fx_atan2
 0000:02074688       fx_mul_round
 0000:020746C0       fx_fract
 0000:020746EC       fx_acos
 0000:02074744       gfxInit
 0000:02074830       pSrc
 0000:0207484C       gfxSetVCountIntrLine
 0000:02074870       gfxSetHBlankIRQEnabled
 0000:02074898       gfxSetVBlankIRQEnabled
 0000:020748C0       gfxEngineIsEnabledA
 0000:020748CC       gfxEngineDisableA
 0000:02074900       gfxEngineEnableA
 0000:0207493C       gfxSetEngineModeA
 0000:02074988       gfxSetBGModeB
 0000:0207499C       gfxRegSetMasterBrightness
 0000:020749C0       gfxRegGetMasterBrightness
 0000:020749F8       gfxRegSetBGTransform
 0000:02074A98       gfxRegSetAlphaBlend
 0000:02074AB4       gfxRegSetBrightnessBlend
 0000:02074AD0       gfxRegSetBlend
 0000:02074B04       gfxRegAdjustBrightnessBlend
 0000:02074B40       gfxPerspective
 0000:02074B74       gfxOrtho
 0000:02074BAC       gfxLookAt
 0000:02074BD8       gfxRotateX
 0000:02074BFC       gfxRotateY
 0000:02074C20       gfxRotateZ
 0000:02074C40       gfxLoadMatrix4x4
 0000:02074C54       gfxLoadMatrix4x3
 0000:02074C68       gfxMultMatrix4x4
 0000:02074C7C       gfxMultMatrix4x3
 0000:02074C90       gfxMultMatrix3x3
 0000:02074CA4       gfxMultTransRot4x3
 0000:02074CC8       gfxInit3D
 0000:02074D80       gfxReset3D
 0000:02074DCC       gfxResetFIFO
 0000:02074DEC       gfxResetMatrixStack
 0000:02074E50       gfxResetMatrixStackKeepProjection
 0000:02074EA4       gfxSetFog
 0000:02074EE8       gfxGetClipMatrix
 0000:02074F0C       gfxGetNormalMatrix
 0000:02074F30       gfxSetEdgeColorTable
 0000:02074F40       gfxSetFogTable
 0000:02074F50       gfxClearColor
 0000:02074F74       gfxResetLUTs
 0000:0207501C       gfxGetWorldMatrixStackLevel
 0000:02075040       gfxGetProjectionMatrixStackLevel
 0000:02075064       gfxSet1DotDepth
 0000:02075078       gfxGetBoxTestResult
 0000:02075098       gfxClearFIFO
 0000:0207512C       gfxGetScreenAddrBG0A
 0000:02075158       gfxGetScreenAddrBG0B
 0000:02075174       gfxGetScreenAddrBG1A
 0000:020751A0       gfxGetScreenAddrBG1B
 0000:020751BC       gfxGetScreenAddrBG2A
 0000:02075238       def_20751E8
 0000:02075240       gfxGetScreenAddrBG2B
 0000:02075264       jpt_2075262
 0000:0207529A       def_2075262
 0000:020752A4       gfxGetScreenAddrBG3A
 0000:02075320       def_20752D0
 0000:02075328       gfxGetScreenAddrBG3B
 0000:0207534C       jpt_207534A
 0000:02075382       def_207534A
 0000:0207538C       gfxGetCharAddrBG0A
 0000:020753B4       gfxGetCharAddrBG0B
 0000:020753CC       gfxGetCharAddrBG1A
 0000:020753F4       gfxGetCharAddrBG1B
 0000:0207540C       gfxGetCharAddrBG2A
 0000:02075448       gfxGetCharAddrBG2B
 0000:02075474       gfxGetCharAddrBG3A
 0000:020754B4       gfxGetCharAddrBG3B
 0000:020754E4       gfxUploadStdPaletteBGA
 0000:02075550       ndma_copy
 0000:02075554       __32ndma_copy
 0000:02075560       gfxUploadStdPaletteBGB
 0000:020755CC       gfxUploadStdPaletteObjA
 0000:02075638       gfxUploadStdPaletteObjB
 0000:020756A4       gfxUploadOAMA
 0000:020756F8       gfxUploadOAMB
 0000:02075748       gfxUploadObjCharA
 0000:02075794       gfxUploadObjCharB
 0000:020757E0       gfxUploadBGScreen0A
 0000:02075854       gfxUploadBGScreen0B
 0000:020758C8       gfxUploadBGScreen1A
 0000:0207593C       gfxUploadBGScreen1B
 0000:020759B0       gfxUploadBGScreen2A
 0000:02075A24       gfxUploadBGScreen2B
 0000:02075A98       gfxUploadBGScreen3A
 0000:02075B0C       gfxUploadBGScreen3B
 0000:02075B80       gfxUploadBGChar0A
 0000:02075BD8       gfxUploadBGChar0B
 0000:02075C30       gfxUploadBGChar1A
 0000:02075C88       gfxUploadBGChar1B
 0000:02075CE0       gfxUploadBGChar2A
 0000:02075D38       gfxUploadBGChar2B
 0000:02075D90       gfxUploadBGChar3A
 0000:02075DE8       gfxUploadBGChar3B
 0000:02075E40       gfxBeginBGExtPltAUpload
 0000:02075EA0       gfxUploadExtPaletteBGA
 0000:02075F04       ndma_copyEx
 0000:02075F08       __32ndma_copyEx
 0000:02075F14       gfxEndBGExtPltAUpload
 0000:02075F5C       gfxBeginObjExtPltAUpload
 0000:02075F8C       gfxUploadExtPaletteObjA
 0000:02075FEC       gfxEndObjExtPltAUpload
 0000:02076024       gfxBeginBGExtPltBUpload
 0000:02076034       gfxUploadExtPaletteBGB
 0000:02076090       gfxEndBGExtPltBUpload
 0000:020760C4       gfxBeginObjExtPltBUpload
 0000:020760D4       gfxUploadExtPaletteObjB
 0000:02076130       gfxEndObjExtPltBUpload
 0000:02076164       gfxBeginTextureUpload
 0000:0207619C       gfxUploadTexture
 0000:020762A4       gfxEndTextureUpload
 0000:020762E0       gfxBeginPaletteUpload
 0000:02076300       gfxUploadPalette
 0000:02076360       gfxEndPaletteUpload
 0000:02076398       gfxBeginRearPlaneImageUpload
 0000:020763B2       jpt_20763B0
 0000:020763E4       def_20763B0
 0000:020763F8       gfxUploadRearPlaneImageA
 0000:02076450       gfxUploadRearPlaneImageB
 0000:020764B0       gfxEndRearPlaneImageUpload
 0000:020764E8       gfxSetLCDCBanksCore
 0000:0207657C       gfxSetBGBanksA
 0000:020765A6       jpt_20765A4
 0000:020765E8       def_20765A4
 0000:020766CC       gfxSetObjBanksA
 0000:020766F6       jpt_20766F4
 0000:02076760       def_20766F4
 0000:02076784       gfxSetBGExtPltBanksA
 0000:02076820       gfxSetObjExtPltBanksA
 0000:0207688C       gfxSetTextureBanks
 0000:020768C8       jpt_20768C6
 0000:0207695C       def_20768C6
 0000:02076988       gfxSetPaletteBanks
 0000:02076A00       gfxSetRearPlaneImageBanks
 0000:02076A1E       jpt_2076A1C
 0000:02076A70       def_2076A1C
 0000:02076A98       gfxSetPlainARM7Banks
 0000:02076AF0       gfxSetLCDCBanks
 0000:02076B08       gfxSetBGBanksB
 0000:02076B64       gfxSetObjBanksB
 0000:02076BA8       gfxSetBGExtPltBanksB
 0000:02076BF8       gfxSetObjExtPltBanksB
 0000:02076C4C       gfxAcquireBanksForLCDC
 0000:02076C6C       gfxAcquireBGBanksA
 0000:02076C74       g3bit
 0000:02076C7C       gfxAcquireObjBanksA
 0000:02076C8C       gfxAcquireBGExtPltBanksA
 0000:02076CAC       gfxAcquireObjExtPltBanksA
 0000:02076CCC       gfxAcquireTextureBanks
 0000:02076CDC       gfxAcquirePaletteBanks
 0000:02076CEC       gfxAcquireRearPlaneImageBanks
 0000:02076CFC       gfxAcquireBGBanksB
 0000:02076D0C       gfxAcquireObjBanksB
 0000:02076D1C       gfxAcquireBGExtPltBanksB
 0000:02076D3C       gfxAcquireObjExtPltBanksB
 0000:02076D5C       gfxDisableQueuedBanks
 0000:02076E08       gfxDisableBGBanksA
 0000:02076E18       gfxDisableObjBanksA
 0000:02076E28       gfxDisableBGExtPltBanksA
 0000:02076E48       gfxDisableObjExtPltBanksA
 0000:02076E68       gfxDisableTextureBanks
 0000:02076E78       gfxDisablePaletteBanks
 0000:02076E88       gfxDisableRearPlaneImageBanks
 0000:02076E98       gfxDisablePlainARM7Banks
 0000:02076EA8       gfxDisableLCDCBanks
 0000:02076EB8       gfxDisableBGBanksB
 0000:02076EC8       gfxDisableObjBanksB
 0000:02076ED8       gfxDisableBGExtPltBanksB
 0000:02076EF8       gfxDisableObjExtPltBanksB
 0000:02076F18       gfxGetObjBanksA
 0000:02076F24       gfxGetObjExtPltBanksA
 0000:02076F30       gfxGetTextureBanks
 0000:02076F3C       gfxGetLCDCBanks
 0000:02076F48       gfxGetObjBanksB
 0000:02076F54       gfxGetObjExtPltBanksB
 0000:02076F60       gfxUploadMatrix4x3
 0000:02076F84       gfxUploadMatrix4x4
 0000:02076FA0       gfxInitVRAM
 0000:02076FD4       countLeadingZeros
 0000:02076FDC       countOneBits
 0000:02077014       md5_transform
 0000:02078058       dma_fill
 0000:020780AC       dma_copy
 0000:0207817C       dma_fillEx
 0000:0207821C       dma_copyEx
 0000:02078304       dma_end
 0000:02078354       dma_endAll
 0000:0207840C       dma_check_source_valid
 0000:0207856C       callback
 0000:02078650       sys_memset16
 0000:02078668       sys_memcpy16
 0000:02078684       sys_memset32
 0000:02078698       sys_memcpy32
 0000:020786B0       sys_memcpy_volatile
 0000:020786C8       sys_memset32_fast
 0000:02078714       sys_memcpy32_fast
 0000:0207874C       gfxUploadFogTable
 0000:02078768       MAT3_Copy
 0000:02078784       MAT43_Copy
 0000:020787A8       MAT4_Copy
 0000:020787D4       sys_memset
 0000:02078868       sys_memset_fast
 0000:0207894C       sys_memcpy
 0000:02078A7C       sys_memcmp
 0000:02078AAC       sys_memcpy_fast
 0000:02078D9C       sys_memcpy_ex
 0000:020790C0       memswap
 0000:020790C8       sys_uncomp_lz1x
 0000:020791F8       DMACNT
 0000:020792A4       alarm
 0000:02079408       queue
 0000:02079A0C       data
 0000:02079A28       spiHoldChipselect
 0000:02079BDC       irq_waitFor
 0000:02079D4C       CPU_SetIRQFunc
 0000:02079E10       irq_setDMACallback
 0000:02079E7C       CPU_SetInterrupts
 0000:02079E9C       CPU_EnableInterrupts
 0000:02079EC0       CPU_DisableInterrupts
 0000:02079EE4       CPU_AcknowledgeInterrupts
 0000:02079F6C       file
 0000:0207A1AC       lockp
 0000:0207A1B0       ctrlFuncp
 0000:0207A230       cart_mutex_get_status
 0000:0207A234       cart_key_create
 0000:0207A28C       cart_key_release
 0000:0207A320       scheduler_thread_list_append
 0000:0207A460       scheduler_switch_thread
 0000:0207A4D0       scheduler_init
 0000:0207A5B4       scheduler_init_thread
 0000:0207A67C       scheduler_thread_exit_proc
 0000:0207A694       scheduler_exit_thread
 0000:0207A6D0       scheduler_release_thread
 0000:0207A6F8       scheduler_release_thread_core
 0000:0207A854       scheduler_is_thread_ended
 0000:0207A864       scheduler_join_thread
 0000:0207A894       scheduler_yield
 0000:0207A910       scheduler_start_thread
 0000:0207AA98       num2
 0000:0207ACB8       hw_isDSi
 0000:0207B06C       cp15_invalidateDCAll
 0000:0207B0A0       cp15_invalidateDC
 0000:0207B0BC       cp15_cleanDC
 0000:0207B0D8       cp15_flushDC
 0000:0207B0FC       cp15_drainWriteBuffer
 0000:0207B108       cp15_invalidateICAll
 0000:0207B114       cp15_invalidateIC
 0000:0207B150       os_init
 0000:0207B2B0       address
 0000:0207B2C4       GetUserMemRegionEnd
 0000:0207B2D0       GetUserMemRegionStart
 0000:0207B2DC       GetUserMemRegionDefaultEnd
 0000:0207B2EE       jpt_207B2EC
 0000:0207B380       def_207B2EC
 0000:0207B3A0       GetUserMemRegionDefaultStart
 0000:0207B3B2       jpt_207B3B0
 0000:0207B414       def_207B3B0
 0000:0207B438       SetUserMemRegionEnd
 0000:0207B444       SetUserMemRegionStart
 0000:0207B450       mem_alloc_direct
 0000:0207B520       malloc_device
 0000:0207B5C4       free_device
 0000:0207B608       mem_init_alloc_area
 0000:0207B67C       mem_bind_range
 0000:0207B6E4       mem_bind_static_ram_alloc
 0000:0207B7DC       cp15_mmu_enable
 0000:0207B7EC       cp15_mmu_disable
 0000:0207B818       mprotect_region0
 0000:0207B898       SetMemoryProtectionRegion
 0000:0207B8C0       exceptions_init
 0000:0207B90C       NativeExceptionHandler
 0000:0207B980       AbortUndefExcHandler
 0000:0207B994       exceptions_log_regs
 0000:0207BA14       exceptions_call_abort_undef_callback
 0000:0207BAA8       clock_init
 0000:0207BAEC       clock_is_inited
 0000:0207BAF8       clock_irq
 0000:0207BB38       clock
 0000:0207C0FC       CPU_IRQEnable
 0000:0207C110       CPU_IRQDisable
 0000:0207C124       CPU_SetIRQMask
 0000:0207C13C       CPU_IRQFIQDisable
 0000:0207C150       CPU_SetIRQFIQMask
 0000:0207C168       CPU_GetIRQMask
 0000:0207C174       CPU_GetMode
 0000:0207C1B0       CPU_WaitIntrBit
 0000:0207C228       sys_get_boot_indicator
 0000:0207C234       sys_get_boot_indicator_ptr
 0000:0207C2C8       sys_reset
 0000:0207C64C       start
 0000:0207C7A0       sys_exit
 0000:0207C808       abort
 0000:0207C814       cp15_halt
 0000:0207CC58       param
 0000:0207CCC8       status
 0000:0207D508       sndSetRate
 0000:0207D520       sndSetVolume
 0000:0207D538       sndSetPan
 0000:0207D550       sndQueuePacket_PlaySamples
 0000:0207D5CC       sndSetMasterVolume
 0000:0207D674       sndQueuePacket
 0000:0207D760       work
 0000:0207D808       sndNewPacket
 0000:0207D868       sndQueuePacket_
 0000:0207D990       startAddr
 0000:0207D9DC       sndGetSentPacketCount
 0000:0207EFB0       swBuf
 0000:0207EFEC       cycle
 0000:0207F628       listp
 0000:0207F8D8       NNS_STD_StrLen
 0000:02080130       len
 0000:02080924       mq
 0000:02080928       msgArray
 0000:02082444       aidBitmap
 0000:02082670       dmaCntData
 0000:02082824       dsiJump_27696E9
 0000:0208283C       j_27696E9
 0000:02082840       dsi27696E9
 0000:0208286C       j_27696F5
 0000:02082870       dsi27696F5
 0000:02082898       j_27696F9
 0000:0208289C       dsi27696F9
 0000:020828D0       j_27698B4
 0000:020828D8       exit
 0000:020828F4       atexit
 0000:020829C0       nan
 0000:020829D8       __sys_alloc
 0000:020829F0       __sys_free
 0000:02082A08       __sys_pointer_size
 0000:02082A1C       malloc
 0000:02082A34       free
 0000:02082A48       realloc
 0000:02082AB8       calloc
 0000:02082AE8       __flush_line_buffered_output_files
 0000:02082B70       __flush_all
 0000:02082BD4       abs
 0000:02082BE0       __convert_from_newlines
 0000:02082BE4       __convert_to_newlines
 0000:02082BE8       __prep_buffer
 0000:02082C10       __load_buffer
 0000:02082C9C       __flush_buffer
 0000:02082D20       setvbuf
 0000:02082E20       fread
 0000:02083134       fclose
 0000:020831A8       fflush
 0000:0208328C       __msl_strnicmp
 0000:02083308       _ftell
 0000:02083384       ftell
 0000:02083490       _fseek
 0000:02083650       fseek
 0000:0208376C       rewind
 0000:02083790       __msl_generic_count_bits64
 0000:02083824       __signbitd
 0000:02083840       __fpclassifyd
 0000:020838B0       __mbtowc_noconv
 0000:020838E8       __wctomb_noconv
 0000:020838FC       wctomb
 0000:02083918       wcstombs
 0000:02083990       memcpy
 0000:020839B0       memmove
 0000:020839FC       memset
 0000:02083A10       memchr
 0000:02083A3C       memcmp
 0000:02083A7C       __fill_mem
 0000:02083B28       parse_format
 0000:02084010       def_2083E68
 0000:02084034       long2str
 0000:02084284       longlong2str
 0000:02084558       double2hex
 0000:02084A04       round_decimal
 0000:02084B18       float2str
 0000:02085228       __pformatter
 0000:02085344       def_2085314
 0000:02085AAC       def_2085820
 0000:02085ACC       pwcs
 0000:02085AD4       __StringWrite
 0000:02085B18       vsnprintf
 0000:02085B78       WriteProc
 0000:02085B7C       sprintf
 0000:02085BA8       qsort
 0000:02085CE0       rand
 0000:02085D14       srand
 0000:02085D24       __StringRead
 0000:02085D9C       nothing
 0000:02085DC4       nullsub_12
 0000:02085DC8       strlen
 0000:02085DE4       strcpy
 0000:02085EAC       strncpy
 0000:02085EFC       strcat
 0000:02085F2C       strcmp
 0000:02086040       strncmp
 0000:02086074       strchr
 0000:020860AC       strspn
 0000:0208616C       strstr
 0000:020861D8       __strtold
 0000:020870DC       MAX_SHRT
 0000:020870F0       strtod
 0000:02087170       ReadProc
 0000:02087178       atod
 0000:02087188       __strtoul
 0000:020874F8       strtoul
 0000:0208758C       strtol
 0000:02087650       __strtoull
 0000:02087A44       strtoll
 0000:02087B2C       atol
 0000:02087B40       atoll
 0000:02087B54       fwide
 0000:02087BC4       wcslen
 0000:02087BE0       wcscpy
 0000:02087C00       __must_round
 0000:02087C6C       __dorounddecup
 0000:02087CBC       __rounddec
 0000:02087CFC       __ull2dec
 0000:02087DC0       __timesdec
 0000:02087F40       __str2dec
 0000:02087FDC       __two_exp
 0000:02088268       def_2088014
 0000:02088308       s
 0000:0208835C       __equals_dec
 0000:0208843C       __less_dec
 0000:0208851C       __minus_dec
 0000:020887BC       __num2dec_internal
 0000:0208893C       __num2dec
 0000:020889E8       __dec2num
 0000:02088FDC       scalbn
 0000:02089008       __ieee754_pow
 0000:020895A4       num
 0000:0208A190       __ieee754_rem_pio2
 0000:0208A86C       ipio2
 0000:0208A870       __kernel_cos
 0000:0208AB88       __kernel_rem_pio2
 0000:0208B708       def_208B3B0
 0000:0208B738       __kernel_sin
 0000:0208B9B4       copysign
 0000:0208B9DC       cos
 0000:0208BB50       floatAbs
 0000:0208BB70       floor
 0000:0208BD34       frexp
 0000:0208BDF4       ldexp
 0000:0208C040       x
 0000:0208C054       sin
 0000:0208C1CC       pow
 0000:0208C1D8       stricmp
 0000:0208C238       strnicmp
 0000:0208C244       strcmpi
 0000:0208C250       __aeabi_dadd
 0000:0208C568       doubleRevSub
 0000:0208C580       doubleSub
 0000:0208C934       __aeabi_dmul
 0000:0208CC98       __aeabi_d2f
 0000:0208CD9C       __aeabi_i2d
 0000:0208CDDC       __aeabi_ui2d
 0000:0208CE18       __aeabi_dcmpge
 0000:0208CEB0       __aeabi_dcmpgt
 0000:0208CF48       __aeabi_dcmple
 0000:0208CFEC       __aeabi_dcmplt
 0000:0208D088       __aeabi_dcmpeq
 0000:0208D114       doubleIsNotEqual
 0000:0208D1A0       floatCmpGE
 0000:0208D1FC       __aeabi_cfcmpeq
 0000:0208D258       floatCmpLE
 0000:0208D2C0       __aeabi_cfcmple
 0000:0208D31C       __aeabi_f2d
 0000:0208D3A0       __aeabi_i2f
 0000:0208D3E8       __aeabi_ui2f
 0000:0208D430       mod64Signed
 0000:0208D440       __aeabi_ldivmod
 0000:0208D5F0       __aeabi_uldivmod
 0000:0208D5FC       mod64Unsigned
 0000:0208D604       __aeabi_uldivmod_impl
 0000:0208D638       __aeabi_lmul
 0000:0208D658       __aeabi_llsl
 0000:0208D688       __aeabi_idivmod
 0000:0208D894       __aeabi_uidivmod
 0000:0208D89C       __aeabi_uidivmod_impl
 0000:0208DA78       __aeabi_f2iz
 0000:0208DAAC       __aeabi_f2uiz
 0000:0208DAEC       __aeabi_d2iz
 0000:0208DB38       __aeabi_d2ulz
 0000:0208DBC4       sqrt
 0000:0208DD60       __aeabi_fmul
 0000:0208DF40       __aeabi_fadd
 0000:0208E164       __aeabi_frsub
 0000:0208E170       __aeabi_fsub
 0000:0208E3E8       floatRevDiv
 0000:0208E3F4       __aeabi_fdiv
 0000:0208E7AC       doubleRevDiv
 0000:0208E7C4       __aeabi_ddiv
 0000:0208ED08       nullsub_10
 0000:0208ED0C       __register_atexit
 0000:0208ED58       __TRK_write_console
 0000:0208ED5C       WriteUARTN
 0000:0208ED60       ReadUARTN
 0000:0208ED68       __read_console
 0000:0208EDB8       __write_console
 0000:0208EDFC       __close_console
 0000:0208EE04       boot_CallStaticInit
 0000:0208EE34       __register_global_object
 0001:0208EE84       HEAP_SETUP_TWL
 0001:0208EE94       HEAP_SETUP_NTR
 0001:0208EEA4       POKE_VOICE_DEFAULT_CHANNEL_LIST
 0001:0208EEB0       POKE_VOICE_EXTRA_ENTRIES
 0001:0208EED4       sv_extra_init
 0001:0208EF7C       save_block_data
 0001:0208EF94       sv_extra_blk_data
 0001:0208F18C       SAVEDATA_INIT
 0001:0208F4F8       dna_splicer_item_idxs
 0001:0208F4FC       ITEM_CATEGORIES
 0001:0208F7CC       nines
 0001:0208F838       UNOVA_DEX_COMPLETION_EXCLUSIONS
 0001:0208F870       NATIONAL_DEX_COMPLETION_EXCLUSIONS
 0001:0208F948       pokemonFormList
 0001:0208F9B0       slot_type
 0001:0208FA24       UNOVA_LINK_CITY_KEYS
 0001:0208FA2C       UNOVA_LINK_DIFFICULTY_KEYS
 0001:0208FA58       keyArray
 0001:0208FAEC       SURVEY_ANSWER_MSGID_COUNTS
 0001:0208FB84       SURVEY_ANSWER_MSGIDS
 0001:0208FDE4       FATAL_ERROR_G2D_RESIDS
 0001:0208FE4C       PASSPOWER_EXPLORING_CHANCES
 0001:0208FE58       PASSPOWER_HOLLOW_CHANCES
 0001:0208FFA8       game_version
 0001:0208FFAC       region
 0001:0208FFB0       LIGHT_CHANGE_HOURS
 0001:0208FFC4       day_part
 0001:0209003C       GAMESYSTEM_PROC_FUNCTIONS
 0001:02090048       DIRECTION_TO_3D_ANGLE
 0001:02090094       DIFFICULTY_ADJUST_PARTIES
 0001:0209009C       ABYSSAL_RUINS_ZONES_INSIDE
 0001:020900A4       BC_WF_LOBBY_ZONES
 0001:020900AC       NIMBASA_STADIUM_ZONES
 0001:020900B6       ABYSSAL_RUINS_ZONES
 0001:020900D8       ZONE_CAMERA_ASSIGNMENTS
 0001:020900FC       ZONES_WITH_RAILS
 0001:02090114       ZONE_RAIL_ASSIGNMENTS
 0001:0209014C       DIR_TO_RAIL_DIR
 0001:02090384       hpTypes
 0001:02090394       ROTOM_MOVES
 0001:020903A0       stat_nature_adjust
 0001:02090420       natureStat
 0001:020904A0       blockShufLUT
 0001:0209052E       national_legendaries
 0001:02090569       happiness_add
 0001:0209086C       v_GFLFontInitSub
 0001:02090874       v_GFLFontFreeSub
 0001:0209087C       BIT_COUNT_TO_BIT_MASK
 0001:02090888       ascii_0_9_Q
 0001:020908CA       mono_0_9_Q
 0001:02090968       tenExponents
 0001:02090994       Aaaaaa
 0001:0209099B       Ceeeeiiiidnooooo
 0001:020909AC       Ouuuuyysaaaaaa
 0001:020909BB       Ceeeeiiiidnooooo_0
 0001:020909D4       SPECIAL_COMPRESSED_CHAR_TABLE
 0001:02090A38       SYSTEM_MSGBOX_DATIDS_CHAR
 0001:02090A3A       SYSTEM_MSGBOX_DATIDS_PALETTE
 0001:02090A3C       pixelData
 0001:02090A5C       MAIL_ITEM_IDS
 0001:02090B14       MONS_BALL_ITEMS
 0001:02090B78       BERRY_ITEM_IDS
 0001:02090CB0       TM_MOVE_LIST
 0001:02090D7C       ITEM_GRAPHICS_CHARS_AND_PALETTES
 0001:02091778       WIPE_FUNCTIONS
 0001:02091AEA       russia_districts_list
 0001:02091B23       poland_provinces_list
 0001:02091B58       sweden_county_list
 0001:02091C42       state_number_list
 0001:02092150       FIELD_SND_COMMAND_ALLOWS_SUCCESSOR
 0001:02092190       song_list
 0001:02092264       ZONE_WK_BGM_MAP
 0001:020922E4       TR_CLASS_BATTLE_BG_OVERRIDES
 0001:020922E8       SPECIAL_TRAINER_CLASSES
 0001:02092340       TRAINER_CLASS_BACK_SPRITES
 0001:020923C0       TRAINER_CLASS_RESOURCES
 0001:02092770       ISS_SUBSYSTEM_FUNCS
 0001:020927DC       ENTRALINK_WEATHER_FLAG_ZONE_LOOKUP
 0001:02092A4C       VRAM_BANKS_128K
 0001:02092A58       SCREEN_CAPTURE_BANK_INFO
 0001:02092A88       g_SRTMatrix
 0001:02092AC4       CAPTURE_TEX_RESHEADER
 0001:02092AD4       CAPTURE_TEX_DATA_OFFSET
 0001:02092AD8       CAPTURE_TEX_RES
 0001:02092B20       CAPTURE_TEX_TREENODE
 0001:02092B24       CAPTURE_TEX_TREE_ENTRY_SIZE
 0001:02092B26       CAPTURE_TEX_TREE_STRINGS_OFFSET
 0001:02092B28       CAPTURE_TEX_TEXIMAGE_PARAM
 0001:02092B2C       CAPTURE_TEX_PARAM2
 0001:02092B30       CAPTURE_TEX_NAME
 0001:02092C20       EVENT_TITLE_FUNCS
 0001:02092F78       BIT_COUNT_MASKS
 0001:02092F81       ACTIVE_BITS_LUT
 0001:02092F8C       EIGHT_MINUS_LAST_ONE_BIT_LUT
 0001:0209308C       FIRST_ONE_BIT_LUT
 0001:0209318C       MAXIMUM_CONTINUOUS_ZERO_BITS_LUT
 0001:0209328C       OBJ_TILE_MAPPING_BOUNDARY_LUT
 0001:020932B4       VRAM_BANK_SIZES
 0001:020933BC       DEFAULT_SYSTEM_FONT
 0001:020933CC       SYSTEM_FONT_GLYPHS
 0001:02093CCC       SYSTEM_FONT_GLYPH_WIDTHS
 0001:02093DEC       DEFAULT_GX_LIGHT
 0001:02093DF4       DEFAULT_CAMERA_PROJECTION
 0001:02093E14       DEFAULT_LOOKAT
 0001:02093E48       obj_char_lut
 0001:02093E50       pltt_type_lut
 0001:02093F6C       SYSTEM_FONT_SPECIAL_CHARS_REMAP
 0001:02093FAC       BLACT_PIXEL_FORMATS
 0001:02093FC0       MMDL_BB_SIZETBL
 0001:02094000       BLACT_GEOM_QUADS
 0001:02094048       BLACT_DEFAULT_CONFIG
 0001:02094104       aSdw
 0001:02094108       dsi_wifi_unk
 0001:0209410C       aFreespotninten
 0001:020941F4       v_ExpHeapAllocator
 0001:020941FC       v_SystemHeapAllocator
 0001:02094204       GFX_UPLOAD_FUNCS
 0001:02094440       MAT_COLOR_MASKS
 0001:02094460       NNS_COMPACT_ROT_LUT
 0001:020945B4       FS_COMMAND_DEFAULT
 0001:020945E8       FS_VTABLE_BASE
 0001:020946E8       FX_SIN_COS_TABLE
 0001:020986E8       FX_ARCTG_TABLE
 0001:020987FC       TEX_VRAM_BANK_RANGES
 0001:020988B8       VOLUME_DB_TABLE
 0001:02098D0C       ascii_char
 0001:02098D8C       nibbleArray
 0001:02098E8C       aNan_3
 0001:02098E94       aInfinity
 0001:020990A8       STATIC_INITIALIZERS
 0001:020990C0       aA303
 0001:020990C8       aA305
 0001:020990D0       aA001
 0001:020990D8       aA306
 0001:020990E0       aA293
 0001:020990E8       aA304
 0001:020990F0       aA289
 0001:020990F8       aA302
 0001:02099100       aA297
 0001:02099108       aA307
 0001:02099110       aA298
 0001:02099118       aA281
 0001:02099120       aA277
 0001:02099128       aA296
 0001:02099130       aA295
 0001:02099138       aA294
 0001:02099140       aA269
 0001:02099148       aA292
 0001:02099150       aA291
 0001:02099158       aA290
 0001:02099160       aA261
 0001:02099168       aA288
 0001:02099170       aA287
 0001:02099178       aA286
 0001:02099180       aA299
 0001:02099188       aA282
 0001:02099190       aA283
 0001:02099198       aA300
 0001:020991A0       aA245
 0001:020991A8       aA280
 0001:020991B0       aA279
 0001:020991B8       aA278
 0001:020991C0       aA237
 0001:020991C8       aA276
 0001:020991D0       aA275
 0001:020991D8       aA274
 0001:020991E0       aA273
 0001:020991E8       aA272
 0001:020991F0       aA271
 0001:020991F8       aA270
 0001:02099200       aA221
 0001:02099208       aA268
 0001:02099210       aA267
 0001:02099218       aA266
 0001:02099220       aA265
 0001:02099228       aA264
 0001:02099230       aA263
 0001:02099238       aA262
 0001:02099240       aA205
 0001:02099248       aA260
 0001:02099250       aA259
 0001:02099258       aA258
 0001:02099260       aA257
 0001:02099268       aA256
 0001:02099270       aA255
 0001:02099278       aA254
 0001:02099280       aA250
 0001:02099288       aA251
 0001:02099290       aA284
 0001:02099298       aA186
 0001:020992A0       aA249
 0001:020992A8       aA248
 0001:020992B0       aA247
 0001:020992B8       aA246
 0001:020992C0       aA173
 0001:020992C8       aA244
 0001:020992D0       aA243
 0001:020992D8       aA242
 0001:020992E0       aA241
 0001:020992E8       aA240
 0001:020992F0       aA239
 0001:020992F8       aA238
 0001:02099300       aA157
 0001:02099308       aA236
 0001:02099310       aA235
 0001:02099318       aA234
 0001:02099320       aA233
 0001:02099328       aA232
 0001:02099330       aA231
 0001:02099338       aA230
 0001:02099340       aA229
 0001:02099348       aA228
 0001:02099350       aA227
 0001:02099358       aA226
 0001:02099360       aA225
 0001:02099368       aA224
 0001:02099370       aA223
 0001:02099378       aA222
 0001:02099380       aA125
 0001:02099388       aA220
 0001:02099390       aA219
 0001:02099398       aA218
 0001:020993A0       aA217
 0001:020993A8       aA216
 0001:020993B0       aA215
 0001:020993B8       aA214
 0001:020993C0       aA213
 0001:020993C8       aA212
 0001:020993D0       aA211
 0001:020993D8       aA210
 0001:020993E0       aA209
 0001:020993E8       aA208
 0001:020993F0       aA207
 0001:020993F8       aA206
 0001:02099400       aA093
 0001:02099408       aA204
 0001:02099410       aA203
 0001:02099418       aA202
 0001:02099420       aA201
 0001:02099428       aA200
 0001:02099430       aA199
 0001:02099438       aA198
 0001:02099440       aA197
 0001:02099448       aA196
 0001:02099450       aA195
 0001:02099458       aA194
 0001:02099460       aA193
 0001:02099468       aA192
 0001:02099470       aA191
 0001:02099478       aA190
 0001:02099480       aA187
 0001:02099488       aA252
 0001:02099490       aA188
 0001:02099498       aA060
 0001:020994A0       aA185
 0001:020994A8       aA184
 0001:020994B0       aA183
 0001:020994B8       aA182
 0001:020994C0       aA181
 0001:020994C8       aA180
 0001:020994D0       aA179
 0001:020994D8       aA178
 0001:020994E0       aA177
 0001:020994E8       aA176
 0001:020994F0       aA175
 0001:020994F8       aA174
 0001:02099500       aA029
 0001:02099508       aA172
 0001:02099510       aA171
 0001:02099518       aA170
 0001:02099520       aA169
 0001:02099528       aA168
 0001:02099530       aA167
 0001:02099538       aA166
 0001:02099540       aA165
 0001:02099548       aA164
 0001:02099550       aA163
 0001:02099558       aA162
 0001:02099560       aA161
 0001:02099568       aA160
 0001:02099570       aA159
 0001:02099578       aA158
 0001:02099580       aA061
 0001:02099588       aA156
 0001:02099590       aA155
 0001:02099598       aA154
 0001:020995A0       aA153
 0001:020995A8       aA152
 0001:020995B0       aA151
 0001:020995B8       aA150
 0001:020995C0       aA149
 0001:020995C8       aA148
 0001:020995D0       aA147
 0001:020995D8       aA146
 0001:020995E0       aA145
 0001:020995E8       aA144
 0001:020995F0       aA143
 0001:020995F8       aA142
 0001:02099600       aA141
 0001:02099608       aA140
 0001:02099610       aA139
 0001:02099618       aA138
 0001:02099620       aA137
 0001:02099628       aA136
 0001:02099630       aA135
 0001:02099638       aA134
 0001:02099640       aA133
 0001:02099648       aA132
 0001:02099650       aA131
 0001:02099658       aA130
 0001:02099660       aA129
 0001:02099668       aA128
 0001:02099670       aA127
 0001:02099678       aA126
 0001:02099680       aA189
 0001:02099688       aA124
 0001:02099690       aA123
 0001:02099698       aA122
 0001:020996A0       aA121
 0001:020996A8       aA120
 0001:020996B0       aA119
 0001:020996B8       aA118
 0001:020996C0       aA117
 0001:020996C8       aA116
 0001:020996D0       aA115
 0001:020996D8       aA114
 0001:020996E0       aA113
 0001:020996E8       aA112
 0001:020996F0       aA111
 0001:020996F8       aA110
 0001:02099700       aA109
 0001:02099708       aA108
 0001:02099710       aA107
 0001:02099718       aA106
 0001:02099720       aA105
 0001:02099728       aA104
 0001:02099730       aA103
 0001:02099738       aA102
 0001:02099740       aA101
 0001:02099748       aA100
 0001:02099750       aA099
 0001:02099758       aA098
 0001:02099760       aA097
 0001:02099768       aA096
 0001:02099770       aA095
 0001:02099778       aA094
 0001:02099780       aA253
 0001:02099788       aA092
 0001:02099790       aA091
 0001:02099798       aA090
 0001:020997A0       aA089
 0001:020997A8       aA088
 0001:020997B0       aA087
 0001:020997B8       aA086
 0001:020997C0       aA085
 0001:020997C8       aA084
 0001:020997D0       aA083
 0001:020997D8       aA082
 0001:020997E0       aA081
 0001:020997E8       aA080
 0001:020997F0       aA079
 0001:020997F8       aA078
 0001:02099800       aA077
 0001:02099808       aA076
 0001:02099810       aA075
 0001:02099818       aA074
 0001:02099820       aA073
 0001:02099828       aA072
 0001:02099830       aA071
 0001:02099838       aA070
 0001:02099840       aA069
 0001:02099848       aA068
 0001:02099850       aA067
 0001:02099858       aA066
 0001:02099860       aA065
 0001:02099868       aA064
 0001:02099870       aA063
 0001:02099878       aA062
 0001:02099880       aA285
 0001:02099888       aA301
 0001:02099890       aA059
 0001:02099898       aA058
 0001:020998A0       aA057
 0001:020998A8       aA056
 0001:020998B0       aA055
 0001:020998B8       aA054
 0001:020998C0       aA053
 0001:020998C8       aA052
 0001:020998D0       aA051
 0001:020998D8       aA050
 0001:020998E0       aA049
 0001:020998E8       aA048
 0001:020998F0       aA047
 0001:020998F8       aA046
 0001:02099900       aA045
 0001:02099908       aA044
 0001:02099910       aA043
 0001:02099918       aA042
 0001:02099920       aA041
 0001:02099928       aA040
 0001:02099930       aA039
 0001:02099938       aA038
 0001:02099940       aA037
 0001:02099948       aA036
 0001:02099950       aA035
 0001:02099958       aA034
 0001:02099960       aA033
 0001:02099968       aA032
 0001:02099970       aA031
 0001:02099978       aA030
 0001:02099980       aA000
 0001:02099988       aA028
 0001:02099990       aA027
 0001:02099998       aA026
 0001:020999A0       aA025
 0001:020999A8       aA024
 0001:020999B0       aA023
 0001:020999B8       aA022
 0001:020999C0       aA021
 0001:020999C8       aA020
 0001:020999D0       aA019
 0001:020999D8       aA018
 0001:020999E0       aA017
 0001:020999E8       aA016
 0001:020999F0       aA015
 0001:020999F8       aA014
 0001:02099A00       aA013
 0001:02099A08       aA012
 0001:02099A10       aA011
 0001:02099A18       aA010
 0001:02099A20       aA009
 0001:02099A28       aA008
 0001:02099A30       aA007
 0001:02099A38       aA006
 0001:02099A40       aA005
 0001:02099A48       aA004
 0001:02099A50       aA003
 0001:02099A58       aA002
 0001:02099A60       NARC_PATH_LIST
 0001:02099F30       aGfl_use_c
 0001:02099F3C       aSwan_sound_dat
 0001:02099F54       aPm_voice_c
 0001:02099F60       aFBfCNg
 0001:02099F6C       aSnd_mic_c
 0001:02099F78       aBgm_info_c
 0001:02099F84       aSnd_strm_c
 0001:02099F90       aSave_control_c
 0001:02099FA4       message
 0001:02099FA8       SavecontrolworkNull
 0001:02099FC0       aCtrlSv_extraExtra_i
 0001:02099FE8       a0_3
 0001:02099FEC       aTraynumBox_max_tray
 0001:0209A004       aTraynumBox_max_tr_0
 0001:0209A040       aPosBox_max_pos
 0001:0209A050       aTraynumBox_max_tr_1
 0001:0209A090       aPosBox_max_pos_0
 0001:0209A0A4       aBox_savedata_c
 0001:0209A0B4       aPerapvoice_c
 0001:0209A0C4       aMyitem_savedata_c
 0001:0209A0D8       aConfig_c
 0001:0209A0E4       aMystatus_c
 0001:0209A0F0       aPlaytime_c
 0001:0209A1A4       aMail_c
 0001:0209A1AC       aWifilist_c
 0001:0209A1B8       aMystery_data_c
 0001:0209A1C8       aRegulation_c
 0001:0209A1D8       aBattle_rec_c
 0001:0209A1E8       aMusical_dist_save_c
 0001:0209A1FC       aGds_profile_c
 0001:0209A20C       aBsubway_savedata_c
 0001:0209A220       aSymbol_save_c
 0001:0209A230       aBattle_examination_
 0001:0209A248       aPokewood_rec_c
 0001:0209A258       aCygnus_save_co
 0001:0209A270       aNet_err_c
 0001:0209A280       a0_4
 0001:0209A288       aNum_allbeacon_max
 0001:0209A2A0       a_localworkNull
 0001:0209A2B4       aWih_dwc_c
 0001:0209A2C0       a_localwork
 0001:0209A2CC       pBuf1
 0001:0209A2D8       a_localcfgNull
 0001:0209A2E8       a_localcfg
 0001:0209A2F4       aNet_save_c
 0001:0209A300       aGame_beacon_accesso
 0001:0209A318       sourceFile
 0001:0209A328       aFest_mission_c
 0001:0209A338       aVm_c
 0001:0209A340       aIca_anime_c
 0001:0209A34C       aNsbtx_to_clwk_c
 0001:0209A35C       aGame_event_c
 0001:0209A36C       aGame_data_c
 0001:0209A37C       aBtl_setup_c
 0001:0209A388       VERSION_SPECIFIC_ZONES
 0001:0209A394       VERSION_SPECIFIC_AREAS
 0001:0209A3A0       WT_BT_ZONES
 0001:0209A3B4       aZonedata_c
 0001:0209A3C0       aField_status_c
 0001:0209A3D0       aMcss_c
 0001:0209A3E8       aPoke_tool_c
 0001:0209A3F4       aPoke_regulation_c
 0001:0209A408       aPokeparty_c
 0001:0209A414       aPoke_personal_c
 0001:0209A424       EVOLVE_ICEROCK_ZONES
 0001:0209A426       EVOLVE_MOSSROCK_ZONES
 0001:0209A428       EVOLVE_ELEC_ZONES
 0001:0209A42E       EVOLVE_ELEC2_ZONES
 0001:0209A434       aShinka_check_c
 0001:0209A444       aWaza_tool_c
 0001:0209A450       aPrintsys_c
 0001:0209A45C       aGf_font_c
 0001:0209A468       aWordset_c
 0001:0209A474       g_PMLSpeciesNamesResident
 0001:0209A478       aBmp_menuwork_c
 0001:0209A488       aBmp_menu_c
 0001:0209A494       aBmp_menulist_c
 0001:0209A4A4       aBmp_cursor_c
 0001:0209A4B4       aFile_util_c
 0001:0209A4C0       g_FieldColorPostFXWeightG
 0001:0209A4C4       g_FieldColorPostFXWeightR
 0001:0209A4C8       g_FieldColorPostFXWeightB
 0001:0209A4CC       aPalanm_c
 0001:0209A4D8       aWipe_c
 0001:0209A560       aWipe_sub_c
 0001:0209A56C       aPmsi_param_c
 0001:0209A57C       aPms_word_c
 0001:0209A588       aInfowin_c
 0001:0209A594       aActor_tool_c
 0001:0209A5A4       aBmp_oam_c
 0001:0209A5B0       aCursor_move_c
 0001:0209A5C0       aGame_comm_c
 0001:0209A5D0       aGamebeaconsysN
 0001:0209A5E8       aGame_beacon_c
 0001:0209A5F8       aGamebeaconsysNull
 0001:0209A610       aBeacon_status_c
 0001:0209A620       aApp_taskmenu_c
 0001:0209A630       aApp_keycursor_c
 0001:0209A640       aPlayer_volume_fader
 0001:0209A658       FIELD_SND_EXEC_FUNCS
 0001:0209A694       FIELD_SND_CONTROL_FUNCS
 0001:0209A6D0       aField_sound_system_
 0001:0209A6E8       aRingtone_sys_c
 0001:0209A6F8       aTpoke_data_c
 0001:0209A708       aTr_tool_c
 0001:0209A714       aIss_city_sys_c
 0001:0209A724       aIss_city_unit_c
 0001:0209A734       aIss_road_sys_c
 0001:0209A744       aIss_dungeon_sys_c
 0001:0209A758       aIss_sys_c
 0001:0209A764       aIss_3ds_sys_c
 0001:0209A774       aIss_zone_sys_c
 0001:0209A784       aIss_switch_sys_c
 0001:0209A798       aIss_switch_set_c
 0001:0209A7AC       aIss_switch_c
 0001:0209A7BC       aBgwinfrm_c
 0001:0209A7D8       aPokegra_c
 0001:0209A7E4       aPms_draw_c
 0001:0209A7F0       aBag_param_c
 0001:0209A7FC       aCodein_param_c
 0001:0209A80C       aPlist_data_setup_c
 0001:0209A820       Screentex_c
 0001:0209A82C       Comm_player_support_c
 0001:0209A844       Blink_palanm_c
 0001:0209A854       Time_icon_c
 0001:0209A860       Resonance_resort_data_c
 0001:0209A878       Resort_binary_c
 0001:0209A888       Resort_work_c
 0001:0209A898       TRACK_HEAP_ID
 0001:0209A89C       SystemAlloc
 0001:0209A8AC       Tcbl_c
 0001:0209A8B4       Procsys_c
 0001:0209A8C0       Backup_system_c
 0001:0209A8D4       SvsysNull
 0001:0209A8E4       Svwk_sizeSvSavearea_size
 0001:0209A904       Next_frameTrue
 0001:0209A920       Lock_idOs_lock_id_error
 0001:0209A93C       aSavedata_c
 0001:0209A94C       aIdSvdtTable_ma
 0001:0209A964       aTableI_gmdatai
 0001:0209A97C       format
 0001:0209A9B0       aGmdataidSvdtTa
 0001:0209A9CC       aAreaman_c
 0001:0209A9D8       aVman_c
 0001:0209A9E0       string
 0001:0209A9E4       aGf_overlay_c
 0001:0209A9F8       _0
 0001:0209A9FC       aUi_c
 0001:0209AA04       aTouchpanel_c
 0001:0209AA14       aKey_c
 0001:0209AA20       aPdataarea
 0001:0209AA2C       a0
 0001:0209AA34       a0_0
 0001:0209AA38       aU16Size0xffff2
 0001:0209AA50       aRet
 0001:0209AA54       aNet_queue_c
 0001:0209AA60       aWm_icon_c
 0001:0209AA70       _0_0
 0001:0209AA98       aNet_system_c
 0001:0209AAAC       aNetidGfl_net_machin
 0001:0209AACC       aPnetiniBmpmode
 0001:0209AAE4       a0_1
 0001:0209AAE8       aNet_handle_c
 0001:0209AAF8       a_pbasework
 0001:0209AB04       a_pbasework_0
 0001:0209AB10       a_pbaseworkTimi
 0001:0209AB2C       aNetidGfl_net_n
 0001:0209AB48       aNetidGfl_net_handle
 0001:0209AB74       aNet_command_c
 0001:0209AB88       a_basetable_lis
 0001:0209ABA0       a_pcommandworkAnethu
 0001:0209ABD0       a_pcommandworkAnet_0
 0001:0209ABF8       aPnetiniMaxsendsize_
 0001:0209AC2C       aNull_pnetstate
 0001:0209AC40       aNet_state_c
 0001:0209AC4C       aU32_pnetstateAmacad
 0001:0209AC70       aPnetiniBnettypeGfl_
 0001:0209ACF4       a_pnetstate
 0001:0209AD00       a0_wifibattleerrorbf
 0001:0209AD24       aNet_c
 0001:0209AD30       aPnetPdevtable
 0001:0209AD40       aPnetinitMaxsendsize
 0001:0209AD70       a0_7
 0001:0209AD74       aSendid7
 0001:0209AD80       aPnetAnetinit_m
 0001:0209ADB4       aPnet
 0001:0209ADBC       aNet_irc_wireless_c
 0001:0209ADD4       a0_8
 0001:0209ADD8       aPtempNum_collectmac
 0001:0209ADF4       aNetiwsys
 0001:0209AE04       aNetldataworkNull
 0001:0209AE1C       aNet_lower_data_c
 0001:0209AE30       aNetldataworkNull_0
 0001:0209AE48       aNetldataworkSenddat
 0001:0209AE68       aNetldataworkPostwor
 0001:0209AE90       aNetldataworkPostw_0
 0001:0209AEB8       aBuffersizeIsNotEnou
 0001:0209AEDC       aGf_standard_c
 0001:0209AEEC       aBg_sys_c
 0001:0209AEF8       aBmp_c
 0001:0209AF00       aBmp_win_c
 0001:0209AF0C       g_GFLStrTerminator
 0001:0209AF10       aStrbuf_c
 0001:0209AF1C       aMsgdata_c
 0001:0209AF28       aSystemfont_c
 0001:0209AF38       aG3d_system_c
 0001:0209AF48       aG3d_util_c
 0001:0209AF54       aG3d_camera_c
 0001:0209AF64       aG3d_light_c
 0001:0209AF70       aArc_tool_c
 0001:0209AF80       aArchivemoveimagetop
 0001:0209AFAC       aDatcountDDatid
 0001:0209AFC4       aArc_util_c
 0001:0209AFE8       renderers
 0001:0209B018       ClactC
 0001:0209B024       a0_6
 0001:0209B028       TextprintC
 0001:0209B034       FadeC
 0001:0209B03C       Double3ddispC
 0001:0209B04C       BillboardC
 0001:0209B058       BillboardActC
 0001:0209B068       ParticleC
 0001:0209B074       ButtonManC
 0001:0209B09C       a0123456789abcd
 0001:0209B0C0       aSCCCCS
 0001:0209B0D4       aAbcdefghijklmnopqrs
 0001:0209B118       aSdkdev_gamespy_com
 0001:0209B12C       aGamestats_gs_ninten
 0001:0209B14C       aNwcusbap
 0001:0209B168       aGwi6Fs0nf
 0001:0209B178       aEgerAgSM
 0001:0209B188       a952uybjnpmu903biaBk5m
 0001:0209B1A4       a38g6zxjk20gvmv6JVy1
 0001:0209B1C0       aNdwcshap
 0001:0209B1CC       aNwcusbap_0
 0001:0209B1D8       aNintendoDs
 0001:0209B1E8       g_TexVRAMAllocFunc
 0001:0209B1EC       g_TexVRAMFreeFunc
 0001:0209B1F0       g_PltVRAMAllocFunc
 0001:0209B1F4       g_PltVRAMFreeFunc
 0001:0209B2C4       NNS_G3D_ANIMATION_INIT_HEADER_COUNT
 0001:0209B2E8       NNS_G3D_ANIMATION_INIT_HEADERS
 0001:0209B338       NNS_G3D_JOINT_FLUSH_FUNCS
 0001:0209B344       NNS_G3D_JOINT_SCALE_FUNCS
 0001:0209B350       NNS_G3D_TEX_MATRIX_FUNCS
 0001:0209B370       NNS_G3D_MATERIAL_APPLY_FUNCS
 0001:0209B390       g_NNSTextureSpaceConvMatrix
 0001:0209B3D4       NNS_BILLBOARD_START_PARAMS
 0001:0209B3DC       g_NNSBillboardMatrix
 0001:0209B40C       g_NNSBillboardScale
 0001:0209B424       g_NNSBillboardMatrix2
 0001:0209B454       g_NNSBillboardScale2
 0001:0209B460       NNS_G3D_RENDER_FUNC
 0001:0209B54C       aRom_1
 0001:0209B554       aS
 0001:0209B558       aRom_0
 0001:0209B55C       aRom
 0001:0209B564       g_GfxEngineAEnabled
 0001:0209B568       g_GfxDMANo
 0001:0209B570       MD5_SHIFTS
 0001:0209B630       MD5_PARTS_OF_SINES
 0001:0209B75C       MEMORY_PROTECTION_SET_FUNCS
 0001:0209B7D4       tgid_bak
 0001:0209B7D8       __files[0]
 0001:0209B7DC       __files_1_
 0001:0209B7E0       __files_2_
 0001:0209B824       stdout
 0001:0209B870       stderr
 0001:0209B8BC       inf
 0001:0209B8C0       float_high
 0001:0209B8C4       HUGE_VAL
 0001:0209B8D0       aT
 0001:0209B8D4       aAmPm
 0001:0209B914       aMDY
 0001:0209B920       _current_locale
 0001:0209B92C       aIMSP
 0001:0209B938       aABETY
 0001:0209B948       aSunSundayMonMondayTue
 0001:0209B9A0       aJanJanuaryFebFebruaryMarMarch
 0001:0209B9C3       aAprAprilMayMayJunJuneJulJuly
 0001:0209B9E7       aAugAugustSepSeptemberOctOctober
 0001:0209BA0C       aNovNovemberDecDecember
 0001:0209BAE8       aInf
 0001:0209BAF0       aInf_0
 0001:0209BAF8       aInf_1
 0001:0209BAFC       aInf_2
 0001:0209BB00       aNan
 0001:0209BB08       aNan_0
 0001:0209BB10       aNan_1
 0001:0209BB14       aNan_2
 0001:0209BB1C       str
 0001:0209BB20       random_next
 0001:0209BB24       pow_10
 0001:0209BB64       a54210108624275
 0001:0209BB94       a11102230246251
 0001:0209BBBC       a23283064365386
 0001:0209BBD4       a152587890625
 0001:0209BBE4       a390625
 0001:0209BBEC       a78125
 0001:0209BBF4       a15625
 0001:0209BBFC       a3125
 0001:0209BC04       a625
 0001:0209BC08       a125
 0001:0209BC0C       a25
 0001:0209BC10       a5
 0001:0209BC14       a1
 0001:0209BC18       a2
 0001:0209BC1C       a4
 0001:0209BC20       a8
 0001:0209BC24       a16
 0001:0209BC28       a32
 0001:0209BC2C       a64
 0001:0209BC30       a128
 0001:0209BC34       a256
 0001:0209BC38       a17976931348623
 0001:0209D780       CODESTORE_START
 0001:0209D798       g_GfxUploadQueueBuffer
 0001:0209DA98       g_VBlankCallback
 0001:0209DA9C       g_DeviceAllocHeap
 0001:0209DAA0       g_MainRAMMallocSubArea
 0001:0209DAA4       g_GFLVBlankCounter
 0001:0209DAA8       g_VBlankCallbackData
 0001:0209DAAC       g_GFLGlobalState
 0001:0209DAB4       g_GFLSndBGMStackPos
 0001:0209DB6C       g_GFLSndNowFadeInterval
 0001:0209DB98       g_SndPlayerStates
 0001:0209DC58       g_GFLSndThread
 0001:0209DEB8       g_GFLSndThreadStack
 0001:0209E2B8       g_GFLSndHeap
 0001:0213B2B8       g_PokeVoice
 0001:0213B358       g_PokeVoiceUsedHandleCount
 0001:0213B35A       g_PokeVoiceHandleMax
 0001:0213B35C       g_PokeVoiceFuncGetSndResID
 0001:0213B360       g_PokeVoiceFuncGetWaveInfo
 0001:0213B364       g_PokeVoiceMasterVolume
 0001:0213B368       g_PokeVoiceBlankSampleData
 0001:02140FA0       g_SaveControlWork
 0001:02140FB8       SAVEDATA_DREAM_RADAR
 0001:02141054       g_GflNetErr
 0001:021410C0       g_PassPowerState
 0001:02141134       g_GameSystem
 0001:0214113C       g_GameSysProcData
 0001:02141150       g_ZoneDataSystem
 0001:0214115C       g_PMLPersonalNowLoadForme
 0001:0214115E       g_PMLPersonalNowLoadSpecies
 0001:02141160       g_OTNameCompTemp
 0001:021411A0       g_PMLPkmStringTemp
 0001:021411E0       g_PersonalDataCache
 0001:02141294       g_PMLGrowTblCache
 0001:02141428       g_PMLPersonalArcBW2
 0001:0214142C       g_PMLPersonalArcBW1
 0001:02141430       g_PMLWazaTool
 0001:02141434       g_PMLMoveDataCache
 0001:02141458       g_TextRendererTempBitmap
 0001:0214145C       g_TextRenderer
 0001:02141478       g_LastTextColor2
 0001:02141479       g_TextColorIndex1
 0001:0214147A       g_LastTextColor3
 0001:0214147C       g_GlyphBitReader
 0001:02141488       TEXT_COLOR_SHUFFLE_LUT
 0001:02141688       g_GameSysTimer
 0001:02141840       g_GameBeaconSys
 0001:0214185C       g_HeapMgr
 0001:02141870       g_DTCMMallocSubArea
 0001:02141878       g_HeapDumpState
 0001:02141898       g_GameProcManager
 0001:021418A4       g_DebugPrintFinishFunc
 0001:021418A8       g_DebugPrintOutputFunc
 0001:021418AC       g_DebugPrintInitFunc
 0001:021418B0       g_AssertFailCallback
 0001:021418B4       g_DebugPrintState
 0001:021418C0       g_OvlManager
 0001:021418C4       g_SystemUI
 0001:0214194C       g_BGSys
 0001:02141950       g_EnabledBGsB
 0001:02141954       g_EnabledBGsA
 0001:02141958       g_BmpWinAllocator
 0001:0214195C       g_MsgDefaultLangID
 0001:02141960       g_SystemFont
 0001:02141964       g_G3DSystem
 0001:02141968       g_GFLG3DTotalRenderedFaces
 0001:0214196C       g_GFLG3DTotalRenderedVertices
 0001:02141970       g_ArcSys
 0001:0214197C       g_ClActSys
 0001:02141980       g_TextPrint
 0001:02141984       g_FadeMgr
 0001:02141988       g_Dual3D
 0001:02141A80       g_GfxUploadQueue
 0001:02143A48       g_NNSG3DRenderState
 0001:02143B4C       g_NNSTempInvViewMatrix
 0001:02143B7C       g_NNSTempModelViewMatrix
 0001:02143BAC       g_NNSTempInvModelViewMatrix
 0001:02143C8C       g_TempLookAtEye
 0001:02143C98       g_TempLookAtUp
 0001:02143CA4       g_TempLookAtTarget
 0001:02143CB0       g_NNSG3DModelRenderer
 0001:02143CB4       g_NNSMaterials
 0001:02144AB4       g_NNSG3DJointScales
 0001:021450B4       g_NNSG3DIBPMatrices
 0001:02148DCC       g_SndChannels
 0001:02149990       g_NNSSndStreamExists
 0001:0214B4A8       g_CartReadThread
 0001:0214BFC4       g_ExtFileSystem
 0001:0214C020       FS_DMA_NO
 0001:0214C024       g_NDSFSCartMutex
 0001:0214C028       g_RomFSFileSystem
 0001:0214C084       g_IsFSInitialized
 0001:0214C08C       g_GfxEngineAMode
 0001:0214C08E       g_GfxCartLock
 0001:0214C090       g_GfxVRAMUploadBanksBGExtPltB
 0001:0214C094       g_GfxVRAMUploadAddrObjExtPltA
 0001:0214C098       g_GfxVRAMUploadBanksObjExtPltA
 0001:0214C09C       g_GfxVRAMUploadSubtrahendBGExtPltA
 0001:0214C0A0       g_GfxVRAMUploadAddrBGExtPltA
 0001:0214C0A4       g_GfxVRAMUploadBanksBGExtPltA
 0001:0214C0A8       g_GfxVRAMUploadBanksObjExtPltB
 0001:0214C0AC       g_GfxVRAMUploadBanksRearPlaneImage
 0001:0214C0B0       g_GfxTexVRAMFirstContinuousBase
 0001:0214C0B4       g_GfxVRAMUploadAddrPalette
 0001:0214C0B8       g_GfxVRAMUploadBanksPalette
 0001:0214C0BC       g_GfxVRAMUploadAddrRearPlaneImage
 0001:0214C0C0       g_GfxVRAMUploadBanksTexture
 0001:0214C0C4       g_GfxTexVRAMSecondContinuousBase
 0001:0214C0C8       g_GfxTexVRAMFirstContinuousLength
 0001:0214C0CC       g_GfxVRAMLCDCBanks
 0001:0214C0CE       g_GfxVRAMBGBanksA
 0001:0214C0D0       g_GfxVRAMObjBanksA
 0001:0214C0D2       g_GfxVRAMPlainARM7Banks
 0001:0214C0D4       g_GfxVRAMTexBanks
 0001:0214C0D6       g_GfxVRAMPltBanks
 0001:0214C0D8       g_GfxVRAMRearPlaneImageBanks
 0001:0214C0DA       g_GfxVRAMBGExtPltBanksA
 0001:0214C0DC       g_GfxVRAMObjExtPltBanksA
 0001:0214C0DE       g_GfxVRAMBGBanksB
 0001:0214C0E0       g_GfxVRAMObjBanksB
 0001:0214C0E2       g_GfxVRAMBGExtPltBanksB
 0001:0214C0E4       g_GfxVRAMObjExtPltBanksB
 0001:0214C268       g_ThreadCount
 0001:0214C26C       g_IsThreadSwitchRequested
 0001:0214C270       g_CurrentThread
 0001:0214C274       g_ThreadList
 0001:0214C27C       g_IdleThread
 0001:0214C33C       g_MainThread
 0001:0214C4C8       g_DSiDetectResult
 0001:0214C4E0       g_DSiDetectDoneFlag
 0001:0214C4E4       g_IsUserMemMarkDone
 0001:0214C4EC       g_AllocAreas
 0001:0214C514       g_ExcUndefAbortCallbackData
 0001:0214C518       g_ExcUndefAbortCallback
 0001:0214C53C       g_ExcRegDump
 0001:0214C5A0       g_ExcCP15Control
 0001:0214C5A8       g_ExcSPAnd1
 0001:0214C5B0       g_ClockIsInitialized
 0001:0214C5B8       g_SystemClockBaseCounter
 0001:0214EE08       g_ExitIsError
 0005:02150340       eventMakeFunc
 0005:02150378       event_callback
 0005:021503DC       functions
 0004:02150400       setPartyLv50
 0004:0215042C       battleBoxToLv50Party
 0004:021504A0       TrimPartyTo3Members
 0004:02150718       EventIRC_Callback
 0004:02150740       jpt_215073E
 0004:02150822       jpt_2150820
 0004:0215084C       def_2150820
 0004:021508DC       jpt_21508DA
 0004:021509F0       def_21508DA
 0004:02150C5E       def_215073E
 0004:02150C84       CallIRC
 0004:02150EA4       newBlkGroupID
 0004:02150ECA       jpt_2150EC8
 0004:02150F92       def_2150EC8
 0004:021519DE       jpt_21519DC
 0004:02151A18       def_21519DC
 0004:02151A46       jpt_2151A44
 0004:02151A7E       def_2151A44
 0004:021526A8       jpt_21526A6
 0004:02152734       def_21526A6
 0004:0215295C       nullsub_73
 0004:02152960       nullsub_74
 0004:02152964       nullsub_75
 0004:02152968       nullsub_76
 0004:021529CC       nullsub_77
 0004:02152C6C       nullsub_78
 0004:02152CB0       nullsub_79
 0004:021532F2       jpt_21532F0
 0004:02153308       def_21532F0
 0004:02153618       msgId
 0004:0215367C       getGameOrigin
 0004:02153680       getSeasonFromPlayerData
 0004:02153694       nullsub_72
 0004:021536A8       nullsub_19
 0004:021536AC       EventScriptCall_Create
 0004:021536C4       EventScriptCall_Start
 0004:021536F4       EventScriptCall_Replace
 0004:02153724       FieldScript_VMExists
 0004:02153748       FieldScriptSupervisor_Create
 0004:02153768       FieldScriptSupervisor_Free
 0004:02153770       FieldScriptSupervisor_Update
 0004:021537B0       FieldScriptSupervisor_AddVM
 0004:021537D8       FieldScriptSupervisor_GetVM
 0004:021537E0       FieldScriptTerminator_ReplaceEvent
 0004:021537E8       FieldScriptSupervisor_SetPostEvent
 0004:021537F4       FieldScriptSupervisor_CallPostFunc
 0004:02153804       FieldScriptSupervisor_HasPostFunc
 0004:02153814       FieldScript_GetZoneIDFromGSys
 0004:02153820       EventScriptCall_Callback
 0004:02153864       EventScriptCall_CreateCore
 0004:021538C0       ScriptWork_CallEvent
 0004:021538D0       ScriptWork_SetPostEvent
 0004:021538E4       ScriptWork_AddVM
 0004:02153914       EventScriptCall_GetWork
 0004:02153920       ScriptWork_GetSupervisor
 0004:02153938       FieldScript_ResetMapLocalEvents
 0004:02153954       FieldScript_CallPlayerInitSetup
 0004:02153964       FieldScript_CallPlayerPostHOFSetup
 0004:02153974       aSCRID
 0004:02153978       FieldScript_Run
 0004:021539D4       FieldScript_CallZoneInitCore
 0004:02153A28       FieldScript_CallOnZoneReload
 0004:02153A34       FieldScript_CallOnZoneNewLoad
 0004:02153A40       FieldScript_CallOnZoneInit
 0004:02153A60       FieldScript_CheckSceneChangeEvent
 0004:02153A9C       FieldScript_GetInitSCRID
 0004:02153AD4       FieldScript_GetSceneChangeSCRID
 0004:02153B60       pBlkBase
 0004:02153B64       FieldScript_CreateVM
 0004:02153C34       pEVCMD_TABLE
 0004:02153C38       pEVCMD_MAX
 0004:02153C3C       FieldScript_FreeVM
 0004:02153C58       FieldScript_ResolveSCRID
 0004:02153D08       FieldScript_LoadData
 0004:02153D20       FieldScript_CheckSCRID
 0004:02153D40       FieldScript_IsVMFeatureSetReduced
 0004:02153D4C       FieldScript_ThrowOpcodeAccessError
 0004:02153D78       FieldScript_OpcodeGuard
 0004:02153DC4       pEVCMD_PERM_TABLE
 0004:02153DC8       FieldScript_AttachOpcodeGuard
 0004:02153DE0       verifier
 0004:02153DE4       UpdateScriptFieldWk
 0004:02153E0C       ScriptWork_Create
 0004:02153EA8       ScriptWork_Free
 0004:02153EE0       ScriptWork_GetEvent
 0004:02153EE4       ScriptWork_GetGameSystem
 0004:02153EE8       ScriptWork_GetFieldWork
 0004:02153EFC       ScriptWork_GetSubwork
 0004:02153F04       ScriptWork_GetWordSet
 0004:02153F08       ScriptWork_GetMainStrBuf
 0004:02153F0C       ScriptWork_GetAltStrBuf
 0004:02153F18       ScriptWork_GetSEBitMask
 0004:02153F1C       ScriptWork_GetSCRID
 0004:02153F20       ScriptWork_GetParentActor
 0004:02153F24       ScriptWork_SetParentActor
 0004:02153F40       varNum
 0004:02153F44       ScriptWork_GetUserHeapPtr
 0004:02153F48       ScriptWork_GetUserHeap
 0004:02153F4C       ScriptWork_FreeUserHeap
 0004:02153F60       ScriptWork_GetLocalWork
 0004:02153F70       ScriptWork_GetWkAddr
 0004:02153FAC       ScriptWork_ResolveHybridValue
 0004:02153FC0       ScriptWork_SetWkValue
 0004:02153FE8       ScriptWork_SetParams
 0004:0215402C       ScriptWork_CreateVarCopy
 0004:02154064       ScriptWork_RestoreVarCopy
 0004:02154084       ScriptWork_SetActorAnmProc
 0004:0215408C       ScriptWork_GetActorAnmProc
 0004:02154094       ScriptWork_SetStadiumTrainers
 0004:0215409C       ScriptWork_GetStadiumTrainers
 0004:021540A4       ScriptWork_GetTrainerState
 0004:021540B0       FieldScriptSubEvent_ResetAll
 0004:021540C4       FieldScriptSubEvent_Register
 0004:021540E8       FieldScriptSubEvent_Unregister
 0004:02154110       FieldScriptSubEvent_IsRegistered
 0004:02154118       FieldScriptSubEvent_IsRegisteredCore
 0004:02154134       EventFinishScriptSubEvents_Callback
 0004:02154184       EventFinishScriptSubEvents_Create
 0004:021541C0       s0000_VMNop
 0004:021541C4       s0001_VMNop2
 0004:021541C8       s0002_VMHalt
 0004:021541D4       swapToScrcmdEnvirDecPauseCtr
 0004:021541E0       s0003_VMSleep
 0004:02154200       func_ptr
 0004:02154204       s0004_VMCall
 0004:0215421C       s0005_VMReturn
 0004:02154228       s0006_DebugPrint
 0004:02154240       s0007_DebugStack
 0004:02154258       s0014_VMRegSet8
 0004:02154270       s0015_VMRegSet32
 0004:0215428C       s0016_VMRegMov
 0004:021542AC       VMCmp
 0004:021542C0       s0017_VMRegCmp8
 0004:021542F0       s0018_VMRegCmpConst8
 0004:02154318       s0019_WorkCmpConst
 0004:02154338       s001A_WorkCmpWork
 0004:0215435C       s0008_VMStackPushConst
 0004:02154370       s0009_VMStackPush
 0004:02154384       s000A_VMStackPop
 0004:021543A0       s000B_VMStackDiscard
 0004:021543AC       s000C_VMStackAdd
 0004:021543CC       s000D_VMStackSub
 0004:021543EC       s000E_VMStackMul
 0004:0215440C       s000F_VMStackDiv
 0004:02154430       s0010_VMStackPushFlag
 0004:02154460       s0011_VMStackCmp
 0004:021544F0       s001B_RTCallGlobalAsync
 0004:02154520       ScriptNative_WaitFinishSubScript
 0004:0215454C       s001C_RTCallGlobal
 0004:021545C4       s001D_RTEndGlobal
 0004:021545D8       s001E_VMJump
 0004:021545F0       s001F_VMJumpIf
 0004:02154634       s0020_VMCallIf
 0004:02154668       s0021_RTReserveScript
 0004:02154688       s0022_FieldGetContinueFlag
 0004:021546A8       s0023_FlagSet
 0004:021546D0       s0024_FlagReset
 0004:021546F8       s0025_FlagGet
 0004:0215472C       s0026_WorkAdd
 0004:0215474C       s0027_WorkSub
 0004:0215476C       s002B_WorkMul
 0004:0215478C       s002C_WorkDiv
 0004:021547B0       s002D_WorkMod
 0004:021547D4       s0012_WorkAnd
 0004:021547F4       s0013_WorkOr
 0004:02154814       s0028_WorkSetConst
 0004:0215482C       s0029_WorkGet
 0004:02154848       s002A_WorkSet
 0004:02154864       s002E_ActorsPauseAll
 0004:0215486C       s002F_ActorsUnpauseAll
 0004:021548B4       s0030_FinishAllEvents
 0004:021548E0       testAB
 0004:021548F4       s0031_ABKeyWait
 0004:02154904       ScriptNative_LastKeyWait
 0004:02154918       s0032_LastKeyWait
 0004:02154928       ScriptReadVar
 0004:02154950       ScriptReadAny
 0004:02154978       FieldScriptEnv_GetZoneID
 0004:02154988       SetScrPluginByZone
 0004:021549CC       LoadScrPluginOverlays
 0004:02154A04       UnloadScrPluginOverlays
 0004:02154A48       GetCurrentScrPluginTable
 0004:02154A64       GetCurrentScrPluginCmdCount
 0004:02154AA4       InitMapMatrix
 0004:02154AF0       MapMatrix_Load
 0004:02154B18       FreeMapMatrix
 0004:02154B20       GetZoneIDAtMatrixXZ
 0004:02154B30       GetZoneIDAtMatrixXZWorld
 0004:02154B50       GetMapMatrixWidth
 0004:02154B54       GetMapMatrixHeight
 0004:02154B58       GetMapMatrixChunkIDCount
 0004:02154B5C       GetMapMatrixChunkIDs
 0004:02154B68       RangeCheckChunkCoordinate
 0004:02154B84       RangeCheckChunkCoordinateWorld
 0004:02154BA4       MapReplace_Patch
 0004:02154C00       MapMatrix_Patch
 0004:02154C40       ProcessMapMatrix
 0004:02154CB8       GetChunkCoordOfWorld
 0004:02154CD4       MapReplace_Create
 0004:02154D18       MapReplace_GetEntryCount
 0004:02154D1C       MapReplace_LoadEntry
 0004:02154D3C       MapReplace_Free
 0004:02154D50       MapReplace_ResolvePatch
 0004:02154DB0       MapReplace_GetEventByCond
 0004:02154DDC       MapReplace_LoadVariables
 0004:02154E60       MapReplace_GetEventByUID
 0004:02154E84       GameData_SetEventMapReplace
 0004:02154EB0       GameData_IsMapReplaceEventSet
 0004:02154EDC       GetLeaguePokeCenReturnLocationIdx
 0004:02154EE0       RangeCheckTeleportZone
 0004:02154EF0       GetRespawnZoneMainZone
 0004:02154F04       SetupTeleportZoneChange
 0004:02154F3C       GetRespawnLocationIndexForRespawnZone
 0004:02154F70       SetTeleportZoneDiscover
 0004:02154FA4       CreateRespawnZoneChangeData
 0004:02154FC0       GetActualRespawnZoneIdx
 0004:02154FD8       SetupTrainerClashSlot
 0004:02155000       GetNPCTrainerIDFromSCRID
 0004:02155020       GetNormalSCRIDFromTrainerID
 0004:02155030       GetPairMember2SCRIDFromTrainerID
 0004:02155040       isTrainerScrIdDoublePair2
 0004:02155054       isDoubleBattle
 0004:02155068       getBattleType
 0004:02155078       TrainerFlagGet
 0004:0215508C       setTrainerBattleFlag
 0004:021550A0       clearTrainerBattleFlag
 0004:021550B4       resetRebattleTrainers
 0004:021550E4       InitScriptSubwork
 0004:0215512C       CreateFieldScriptEnv
 0004:02155174       FreeFieldScriptEnv
 0004:0215519C       FieldScriptEnv_GetHeapID
 0004:021551A0       GetScriptEnvZoneID
 0004:021551A4       FieldScriptEnv_IsReducedFeatureLevel
 0004:021551A8       FieldScriptEnv_GetFeatureLevel
 0004:021551AC       FieldScriptEnv_GetGameSystem
 0004:021551B4       FieldScriptEnv_GetGameData
 0004:021551BC       GetScrEnvMMdlSys
 0004:021551C4       FieldScriptEnv_GetScriptWork
 0004:021551DC       GetFieldScriptMsgData
 0004:021551E0       GetFieldScriptMsgFileNo
 0004:021551E4       setMapDisplayInfoPtr
 0004:021551EC       getMapDisplayInfoPtr
 0004:021551F4       SetSpecialMessageIconPtr
 0004:0215520C       GetFieldScriptActorWk
 0004:02155214       FieldScriptEnv_SetPlayerGridEventTCB
 0004:0215521C       FieldScriptEnv_GetPlayerGridEventTCB
 0004:02155224       ActorMsgWin_GetPosActual
 0004:02155230       ActorMsgWin_SetPosActual
 0004:0215523C       ActorMsgWin_GetPos
 0004:02155248       ActorMsgWin_SetPos
 0004:02155254       FieldScriptEnv_SetWaitCounter
 0004:02155260       FieldScriptEnv_UpdateWaitCounter
 0004:0215527C       GetScrEnvNowPkmVoice
 0004:02155288       SetScrEnvNowPkmVoice
 0004:02155294       FieldScriptEnv_GetElevatorTable
 0004:021552A0       FieldScriptEnv_SetElevatorTable
 0004:021552AC       FieldScriptEnv_AddAcmdTask
 0004:021552CC       FieldScriptEnv_CheckAcmdQueueRunning
 0004:02155330       SetFieldScriptEnvMsgData
 0004:0215534C       InitListMenu
 0004:021553C0       AddItemToListMenu
 0004:02155434       FieldScriptEnv_ShowListMenu
 0004:02155508       FreeListMenuWork
 0004:0215553C       FieldScriptEnv_UpdateListMenu
 0004:02155578       FieldScriptEnv_UpdateListMenuEx
 0004:0215560C       FieldScriptEnv_Save
 0004:0215561C       FieldScriptEnv_Restore
 0004:02155630       SetScrEnvVMIndex
 0004:02155634       FieldScriptEnv_GetVMIndex
 0004:02155638       s00E0_GameGetVersion
 0004:021556A4       s00CB_Random
 0004:021556C4       s00CC_RTGetTextFile
 0004:02155700       s00CD_RTCGetDayPart
 0004:02155724       s00CF_RTCGetWeekDay
 0004:02155748       s00D0_RTCGetDate
 0004:02155780       s00D1_RTCGetTime
 0004:021557B8       s00D2_RTCGetSeason
 0004:021557D4       s00D4_TrainerCardGetBirthDate
 0004:02155804       s00E1_TrainerCardGetSex
 0004:02155824       s00D5_TrainerCardHasBadge
 0004:02155850       s00D6_TrainerCardAddBadge
 0004:02155890       s00D7_TrainerCardGetBadgeCount
 0004:021558B0       s0138_SaveDataGetStatus
 0004:02155920       s00D3_RTGetZoneID
 0004:02155938       s00D9_FieldSetTeleportZone
 0004:02155964       s00DB_FieldSetNextZoneHere
 0004:021559B4       s00DC_FieldSetNextZone
 0004:02155A1C       s00DA_MapReplaceSetEvent
 0004:02155AA0       s00D8_MapReplaceIsEventSet
 0004:02155AD0       s00DE_PokeDexRegist
 0004:02155B28       s00DF_PokeDexIsRegist
 0004:02155B80       s00DD_PokeDexGetCount
 0004:02155BC8       s01C6_PokeDexGiveNational
 0004:02155BE4       s01C7_PokeDexHaveNational
 0004:02155C04       s01C8_PokeDexEnable
 0004:02155C18       s02D0_PokeDexEnableHabitatList
 0004:02155CE4       s00E2_SaveDataCheckRequired
 0004:02155D24       s00E3_GiveRunningShoes
 0004:02155D3C       flagId
 0004:02155E4C       s00EA_HOFCheckIntegrity
 0004:02155ECC       s01D7_ObjInitPointGPos
 0004:02155F24       s01D8_ObjInitWarpGPos
 0004:02155F7C       s01D9_ObjInitNPCGPos
 0004:02155FE0       s0095_TrainerFlagSet
 0004:02156008       s0096_TrainerFlagReset
 0004:02156030       s0097_TrainerFlagGet
 0004:02156064       s008C_CallTrainerLose
 0004:02156094       s008D_TrainerBattleIsVictory
 0004:021560C0       s0176_CallWildLose
 0004:021560F0       s0177_WildBattleIsVictory
 0004:0215611C       s0178_WildBattleGetResult
 0004:0215618C       s02D2_FieldOpenRestoreLCD
 0004:021561B4       CheckGetPartyPokemon
 0004:021561E4       GetScrPokeStat
 0004:02156208       CheckPokeMoveLearned_NonEgg
 0004:02156260       s011B_PokePartyGetTypes
 0004:021562B0       s0104_PokePartyRecoverAll
 0004:021562C4       s0112_PokePartyGetEVTotal
 0004:02156368       s0101_PokePartyIsFullHP
 0004:021563C8       s024E_PokePartyIsFullPP
 0004:0215646C       s0102_PokePartyIsEgg
 0004:021564B0       s00FC_PokePartyGetHappiness
 0004:021564F8       s00FD_PokePartyAdjustHappiness
 0004:02156594       s00FE_PokePartyGetSpecies
 0004:021565D0       s00FF_PokePartyGetForme
 0004:021565F4       s010D_PokePartyGetMemberByType
 0004:02156634       s0103_PokePartyGetCount
 0004:02156666       jpt_2156664
 0004:021566A6       def_2156664
 0004:021566B0       s0114_PokePartyGetCountBySpecies
 0004:02156740       s0121_BoxGetCount
 0004:0215677A       jpt_2156778
 0004:021567BC       def_2156778
 0004:021567C4       s0118_PokePartyFindBySpecies
 0004:0215685C       s0115_PokePartyHasMove
 0004:021568A0       s0116_PokePartyHasMoveAny
 0004:021568FC       s010C_PokePartyAdd
 0004:02156988       s010E_PokePartyAddEx
 0004:02156A70       s02EA_PokePartyAddNPoke
 0004:02156B84       s0108_PokePartyGetMoveCount
 0004:02156BCC       s010A_PokePartyGetMove
 0004:02156C10       s010B_PokePartyLearnMove
 0004:02156D08       s0113_PokePartyIsOriginGame
 0004:02156E14       s0117_PokePartySetForme
 0004:02156E60       s011C_PokePartyChangeRotomForme
 0004:02156EB8       s01D5_MoveReminderCheckPkm
 0004:02156F00       s0119_PokePartyIsFromWhiteForest
 0004:02156F48       s011A_PokePartyGetMetDate
 0004:02156FB4       s0111_PokePartySetIV
 0004:0215701C       s0110_PokePartyGetParam
 0004:02157064       s0122_BoxAdd
 0004:021570E4       s0123_BoxAddEx
 0004:021571B4       s010F_PokePartyAddEgg
 0004:021572EC       location
 0004:021572F0       GameData_MakeBoxPkm
 0004:021573C0       GameData_AddBoxPkm
 0004:02157408       addPkmToParty
 0004:02157450       s00F9_MoneyAdd
 0004:0215747C       s00FA_MoneySub
 0004:021574A8       s00FB_MoneyCheck
 0004:021574E4       s014A_FieldOpen
 0004:02157508       s014B_FieldClose
 0004:02157534       CreateScrCmdOverlayProcess
 0004:021575E8       s014C_RTFreeUserHeap
 0004:02157624       s014E_CallBag
 0004:021576B4       a6
 0004:021576D8       s0150_CallMailbox
 0004:02157794       s01D6_MoveReminderCallMoveSelect
 0004:021578F0       s0154_Call3DDemo
 0004:02157940       s0151_CallPokedexDiploma
 0004:02157988       jpt_2157986
 0004:02157A30       def_2157986
 0004:02157A6C       s0153_callPoke3Select
 0004:02157ACC       s0160_NetConnectWiFiBattle
 0004:02157B68       s0161_NetConnectBattleVideo
 0004:02157C60       s00EB_DayCareCheckSpawnFlag
 0004:02157C84       s00EC_DayCareBreed
 0004:02157CB0       s00ED_DayCareResetSeed
 0004:02157CC8       s00F7_DayCareCallPokeSelect
 0004:02157D1C       s00F0_DayCareDeposit
 0004:02157D4C       s00F1_DayCareWithdraw
 0004:02157D7C       s00EE_DayCareGetPkmCount
 0004:02157DA0       s00EF_DayCareCalcEggSpawnChance
 0004:02157DC4       s00F2_DayCareGetSpecies
 0004:02157DFC       s00F3_DayCareGetForme
 0004:02157E34       s00F8_DayCareGetSex
 0004:02157E6C       s00F4_DayCareCalcNewLevel
 0004:02157E9C       s00F5_DayCareCalcLevelGain
 0004:02157ED8       s00F6_DayCareCalcWithdrawCost
 0004:02157F14       s023E_DayCareGetSexForNamePrint
 0004:02157F60       getNameGenderStatus
 0004:02157FAC       EventDayCarePokeSelect_Callback
 0004:02157FCA       jpt_2157FC8
 0004:02158066       def_2157FC8
 0004:0215806C       EventDayCarePokeSelect_Create
 0004:02158640       s005D_WordSetMusicalInfo
 0004:02158692       jpt_2158690
 0004:02158890       def_2158690
 0004:02158BD8       blkGroupID
 0004:02158BEC       s02EE_MusicalIsPropOwned
 0004:02158C1C       s02EF_MusicalGetOwnedPropCount
 0004:02159098       jpt_2159096
 0004:0215912C       EncData_Load
 0004:02159190       EncountState_Create
 0004:021591B4       EncountState_Free
 0004:02159200       GameData_InitEncountTerrain
 0004:02159224       EncountState_SetTerrain
 0004:02159234       nullsub_20
 0004:02159238       EncountSave_GetRoamingPkmZone
 0004:0215925C       nullsub_106
 0004:02159260       nullsub_107
 0004:02159264       GetDefaultWeatherValue
 0004:02159270       CalcPlayerActionPossibilities
 0004:0215943C       CheckAllowHidenEvent
 0004:02159460       CreateHidenEvent
 0004:02159490       EventCutCall_Check
 0004:021594A4       EventCutCall_Create
 0004:021594CC       EventCutCall_Callback
 0004:02159500       EventSurfCall_Check
 0004:02159538       EventSurfCall_Create
 0004:02159560       EventSurfCall_Callback
 0004:02159594       EventWaterfallCall_Check
 0004:021595B8       EventWaterfallCall_Create
 0004:021595E0       EventWaterfallCall_Callback
 0004:02159614       EventStrengthCall_Check
 0004:02159628       EventStrengthCall_Create
 0004:02159650       EventStrengthCall_Callback
 0004:021596AC       EventFly_Create
 0004:021596C4       EventFly_Check
 0004:021596E8       EventFlash_Check
 0004:021596FC       EventFlash_Create
 0004:02159724       EventFlash_Callback
 0004:021597F4       EventDigCall_Check
 0004:02159818       EventDigCall_Create
 0004:02159848       EventDigCall_Callback
 0004:0215989C       EventTeleportCall_Check
 0004:021598C0       EventTeleportCall_Create
 0004:021598F0       EventTeleportCall_Callback
 0004:02159944       EventDivingCall_Check
 0004:02159968       EventDivingCall_Create
 0004:02159990       EventDivingCall_Callback
 0004:021599F8       EventRuinsStrengthCall_Callback
 0004:02159A64       EventRuinsStrengthCall_Create
 0004:02159A8C       EventRuinsFlash_Callback
 0004:02159AF8       EventRuinsFlash_Create
 0004:02159B20       GetHidenEventCheckFunc
 0004:02159B50       GetHidenEventCtorFunc
 0004:02159C60       s0139_GameCommDisconnect
 0004:02159CAC       s013B_GameCommCheckDSiWiFi
 0004:02159CF4       jpt_2159CF2
 0004:02159D06       def_2159CF2
 0004:02159D74       s024B_FieldSubscreenDisable
 0004:02159D94       s01E1_StadiumLoadTrainerTable
 0004:02159DB8       c
 0004:02159DBC       s01E2_StadiumFreeTrainerTable
 0004:02159DE0       s01E3_StadiumSetupActorSingle
 0004:02159E48       s01E0_StadiumSetupActorsDouble
 0004:02159EC8       s01E0_StadiumSetupActorsTriple
 0004:02159F98       s01E5_StadiumResetTrainerFlags
 0004:0215A0AC       FindStadiumTrainerIndex
 0004:0215A0D4       IsReturnLocationNonLeaguePokeCen
 0004:0215A0F0       EventBattleLose_Callback
 0004:0215A10A       jpt_215A108
 0004:0215A17E       def_215A108
 0004:0215A190       EventBattleLose_Create
 0004:0215A1DC       EventGameClear_Callback
 0004:0215A214       jpt_215A212
 0004:0215A2D6       def_215A212
 0004:0215A488       eventBitNum
 0004:0215A4C8       EventGameClear_Create
 0004:0215A52C       SetGameClearGameData
 0004:0215A57C       SetGameClearStatusSequence
 0004:0215A688       EventGameClear_Get3DDemoID
 0004:0215A6A0       EventGameClear_NextState
 0004:0215A6C4       EventGameClear_GiveMonotypeMedals
 0004:0215A790       CallCreateGameEntryPointEvent
 0004:0215A7AC       EventMapChangeBlackout_CreateExternal
 0004:0215A7C4       LoadFieldGlueOverlay
 0004:0215A7D4       UnloadFieldGlueOverlay
 0004:0215A7E4       EventFieldMenu_Create
 0004:0215A888       EventFieldMenu_CreateUnionRoom
 0004:0215A8B4       EventFieldMenu_Callback
 0004:0215A8CE       jpt_215A8CC
 0004:0215A946       def_215A8CC
 0004:0215AAA4       scrId
 0004:0215AB18       IsExistAnyYShortcut
 0004:0215AB38       CallYButtonShortcutMenu
 0004:0215AC04       EventShortcutChoicePopup_Callback
 0004:0215AC20       jpt_215AC1E
 0004:0215ACF8       def_215AC1E
 0004:0215AE74       EventShortcutCallDirect_Callback
 0004:0215AE90       jpt_215AE8E
 0004:0215AF32       def_215AE8E
 0004:0215B050       ShortcutMenu_SetKeyItemID
 0004:0215B062       jpt_215B060
 0004:0215B216       def_215B060
 0004:0215B22C       ShortcutMenu_GetActionFromKeyItem
 0004:0215B248       jpt_215B246
 0004:0215B2BA       def_215B246
 0004:0215B3E8       EventFieldItemUseBlock_Call
 0004:0215B448       EventFieldItemUseBlock_Create
 0004:0215B478       CheckAnyRibbon
 0004:0215B4C8       EventFieldAppCall_Create
 0004:0215B54C       EventFieldAppCall_Callback
 0004:0215B568       jpt_215B566
 0004:0215B61A       def_215B566
 0004:0215B758       EventFieldAppCall_ConvAppResultToEventType
 0004:0215B768       jpt_215B766
 0004:0215B790       def_215B766
 0004:0215B7D0       FieldAppCallParam_CanRetry
 0004:0215B906       jpt_215B904
 0004:0215B94E       def_215B904
 0004:0215BA66       jpt_215BA64
 0004:0215BB10       def_215BA64
 0004:0215C320       nullsub_2
 0004:0215C328       script_evo
 0004:0215C538       EventSave_Create
 0004:0215C588       EventSave_Callback
 0004:0215C6F0       CallEventPrepareResidentActorsForZoneChange
 0004:0215C71C       EventActionCall_Callback
 0004:0215C76C       EventActionCall_Create
 0004:0215C7AC       CallMoveOneTileFrontEvent
 0004:0215C7D0       jpt_215C7CE
 0004:0215C7E6       def_215C7CE
 0004:0215C804       EventActionCall_FindActor
 0004:0215C81C       EventActionCall_ClearTCBs
 0004:0215C830       EventActionCall_AddTCB
 0004:0215C850       EventActionCall_UpdateTCBs
 0004:0215C884       EventActorJump_Callback
 0004:0215C98C       EventActorJump_Create
 0004:0215C9E8       EventActorLinearMove_Callback
 0004:0215CAE8       EventActorLinearMove_Create
 0004:0215CB3C       FieldAcmdTCB_CreateWalkOneTile
 0004:0215CB50       jpt_215CB4E
 0004:0215CB66       def_215CB4E
 0004:0215CB88       Event3DDemo_Create
 0004:0215CBF0       Event3DDemo_Callback
 0004:0215CC0A       jpt_215CC08
 0004:0215CCA8       def_215CC08
 0004:0215CCAC       ovlId
 0004:0215CCB0       OVL293_ExternalsPtr
 0004:0215CCB8       CreateSeqLoadParam
 0004:0215CD10       SetupPlaySequenceEventRealTime
 0004:0215CD4C       SetupPlaySequenceEventGameTime
 0004:0215CDE4       EventData_Create
 0004:0215CE24       EventData_Free
 0004:0215CE44       EventData_Reset
 0004:0215CE70       EventData_LoadZone
 0004:0215CE94       EventData_LoadEntities
 0004:0215CEA0       EventData_LoadEncData
 0004:0215CEB8       GetZoneInitScrPointer
 0004:0215CEC0       IsEncountDataLoaded
 0004:0215CEC4       LoadZoneEntities
 0004:0215CF44       EventData_Clear
 0004:0215CF70       GetEncountData
 0004:0215CF74       GetWarpAtPosition
 0004:0215CFA8       GetWarpIDByPlayerPos
 0004:0215D02C       GetWarpIDByPlayerPosRail
 0004:0215D060       GetZoneWarpByID
 0004:0215D07C       IsWarpDestId256
 0004:0215D090       SetupZoneWarpArrival
 0004:0215D128       SetupWarpParamByWarp
 0004:0215D13C       ZoneWarp_CalcPosWeightBitsGrid
 0004:0215D14C       CheckWarpDirectionMatch
 0004:0215D17C       GetWarpTransitionType
 0004:0215D180       IsWarpZoneOrWarpID0xFFFF
 0004:0215D19C       SetZoneWarpLocation
 0004:0215D1D4       GetZoneNPCs
 0004:0215D1D8       GetZoneNPCsCount
 0004:0215D1DC       SetZoneNPCLocation
 0004:0215D208       SetZoneNPCMdlID
 0004:0215D21C       SetZoneNPCSCRID
 0004:0215D230       ConvDirToTriggerDir
 0004:0215D240       jpt_215D23E
 0004:0215D258       def_215D23E
 0004:0215D25C       FindTriggerAtPosGrid
 0004:0215D2CC       FindQuicksandTrigger
 0004:0215D330       FindCollidingZoneTriggerAtLocation
 0004:0215D384       FindTriggerAtPosRail
 0004:0215D3C8       GetTriggerSCRIDAtPosGrid
 0004:0215D3E0       GetSCRIDOfCollidingTriggerAtLocation
 0004:0215D3F8       GetTriggerSCRIDAtPosRail
 0004:0215D410       GetZoneProxiesAndCount
 0004:0215D418       CheckProxyEntityEvent
 0004:0215D492       jpt_215D490
 0004:0215D4E4       def_215D490
 0004:0215D500       CheckProxyEntityEventGrid
 0004:0215D508       CheckProxyEntityEventRail
 0004:0215D534       GetTriggerCenterPos
 0004:0215D53C       SetBGEntityLocation
 0004:0215D56C       CalcWarpTransferAddend
 0004:0215D630       ZoneWarp_CalcPosWeightBitsGrid_
 0004:0215D71C       ZoneWarp_GetDirection
 0004:0215D74C       GetGridWarpOutPos
 0004:0215D7B0       CheckWarpPositionMatch
 0004:0215D814       GetRailWarpOutPos
 0004:0215D884       CheckWarpPositionMatchRail
 0004:0215D8E8       CheckBGPositionMatchGrid
 0004:0215D988       CheckBGPositionMatchRail
 0004:0215D9B8       GetTriggerCenterPos_
 0004:0215D9F8       CheckTriggerPositionMatchXYZ
 0004:0215DA60       CheckTriggerPositionMatchXZ
 0004:0215DAB4       CheckTriggerPositionMatchRail
 0004:0215DCAC       ActorTerrainEffect_InitParam
 0004:0215DD7C       ActorTerrainEffect_ApplyAll
 0004:0215E018       ActorTerrainEffect_TallGrass
 0004:0215E3DC       nullsub_60
 0004:0215E3E0       ActorTerrainEffect_Shadow
 0004:0215E3FC       ActorRouteCollCheckCore
 0004:0215E4C4       ActorRouteCollCheck
 0004:0215E4F0       ActorRouteCollCheckOneTileInDir
 0004:0215E538       CheckActorNewPosOtherActorCollision
 0004:0215E69C       CheckActorVolumeOverGPos
 0004:0215E74C       IsGPosOutsideActorWalkArea
 0004:0215E7B4       CheckBlockedCollPathToPosition
 0004:0215E8CC       GetTerrainAtPosByActor
 0004:0215E8E4       GetTileTypeAtPosByActor
 0004:0215E908       GetHeightFromMap
 0004:0215E9C0       SetActorInitialGPosToNowGPos
 0004:0215EA90       jpt_215EA8E
 0004:0215EAB2       def_215EA8E
 0004:0215EAC0       CheckRecalcActorY
 0004:0215EB60       FldAct_CacheTerrainInfo
 0004:0215EC8C       GetDirectionVectorCompX
 0004:0215EC9C       GetDirectionVectorCompZ
 0004:0215ECAC       ExpandVecInGridDir
 0004:0215ECBC       jpt_215ECBA
 0004:0215ECE2       def_215ECBA
 0004:0215ECE4       AdjusGridXZByDir
 0004:0215ECF4       jpt_215ECF2
 0004:0215ED22       def_215ECF2
 0004:0215ED24       ConvGXZToVector
 0004:0215ED38       VecGPosToWPos
 0004:0215ED48       GetInverseDirection
 0004:0215ED58       GetDirFromPosToPos
 0004:0215ED9C       SetRailActorFlag
 0004:0215EDA8       InitRailActor
 0004:0215EE00       SetActorInitPositionRail
 0004:0215EF64       nullsub_108
 0004:0215EF68       nullsub_15
 0004:0215EFA0       PlayerActionPerms_Create
 0004:0215EFF4       CheckFieldActionBlocked
 0004:0215F024       CallFieldCommonEventFunc
 0004:0215F038       FieldActionBlockCheck_Cycling
 0004:0215F0B0       FieldActionBlockCheck_EscapeRope
 0004:0215F108       FieldActionBlockCheck_Surf
 0004:0215F174       EventFieldToggleCycling_Callback
 0004:0215F1E8       EventFieldToggleCycling_Create
 0004:0215F20C       EventEntralinkWarpIn_CreateDefault
 0004:0215F234       EventFieldToggleDowsing_Callback
 0004:0215F258       EventFieldToggleDowsing_Create
 0004:0215F27C       GetHiddenItemNoBySCRID
 0004:0215F29C       GetHiddenItemEventFlagNoBySCRID
 0004:0215F2BC       TryClearRepeatableHiddenItemFlags
 0004:0215F310       Calendar_Create
 0004:0215F348       Calendar_Free
 0004:0215F358       Calendar_GetWeather
 0004:0215F360       Calendar_Reset
 0004:0215F36C       Calendar_BindArc
 0004:0215F37C       Calendar_ReleaseArc
 0004:0215F38C       Calendar_GetWeatherCore
 0004:0215F3B4       Calendar_ReadWeatherValue
 0004:0215F400       Calendar_Preload
 0004:0215F418       Calendar_GetOffsetForZone
 0004:0215F43C       Calendar_GetDayOfYear
 0004:0215F480       s01C9_NDemoStart
 0004:0215F4E8       s01CB_NDemoReadyTalkMotion
 0004:0215F504       s01CA_NDemoEnd
 0004:0215F538       FieldScriptSubEventFinish_NDemo
 0004:0215F558       EventNDemoEnd_Callback
 0004:0215F960       nullsub_109
 0004:021602BC       GameBeacon_BroadcastFerrisWheel
 0004:02160A08       EventRoyalUnova_Create
 0004:02160A54       EventRoyalUnova_Callback
 0004:02160B7C       s01A2_CallRoyalUnovaView
 0004:02160BD0       UnityTowerState_GetParam
 0004:02160D5C       s01CF_UnityTowerGetStateParam
 0004:02160D9C       s01D0_UnityTowerCallFloorSelect
 0004:02160EA8       setBuildingEnterVBlankCallback
 0004:02160F3A       jpt_2160F38
 0004:02160F42       def_2160F38
 0004:02160FB0       rndNum
 0004:02161034       s01DA_CallPhraseSelect
 0004:021610BA       jpt_21610B8
 0004:021610F0       def_21610B8
 0004:02161220       s0136_FieldSetWeather
 0004:02161DB2       jpt_2161DB0
 0004:02161EA4       def_2161DB0
 0004:02161FAC       BtlSetup_SetTrialHouseParty
 0004:02162004       SetupTrialHouseBattle
 0004:02162174       BtlSetup_SetTrainerRental
 0004:021621AE       jpt_21621AC
 0004:021621EC       def_21621AC
 0004:02162280       BtlSetup_SetTrainerTrialHouse
 0004:021622BC       jpt_21622BA
 0004:0216232A       def_21622BA
 0004:02162340       RestrictPlayerParty
 0004:02162460       LoadTrialHouseParty
 0004:02162684       numer
 0004:02162688       genSubwayBtlInstitutePoke
 0004:02162BA4       EventCGearPowerOn_SubscreenCallback
 0004:02162BAC       EventCGearPowerOn_Callback
 0004:02162BDA       jpt_2162BD8
 0004:02162C4C       def_2162BD8
 0004:02162C54       EventCGearPowerOn_Create
 0004:02162D8C       CallTrialHouseBattle
 0004:02162DC8       SyncTrialHouseWkStatsFromBattle
 0004:02162FEC       calcPokerusDecay
 0004:0216309C       midnight
 0004:02163164       getAddressAdventureTimeBlk
 0004:02163174       GameData_GetDayPeriod
 0004:02163190       GameData_GetMonth
 0004:021631A0       GameData_GetDay
 0004:021631B0       getCurrentDayOfWeek
 0004:021631C0       getCurrentHour
 0004:021631D0       getCurrentMinute
 0004:021631E0       setCurrentSeconds
 0004:021631F8       checkForMidnight
 0004:02163208       FieldChunk_Create
 0004:0216334C       FieldChunk_Free
 0004:021633C8       FieldChunk_CallLoaderUpdate
 0004:021633EC       FieldChunk_LoadFullSync
 0004:02163414       FieldChunk_Draw
 0004:0216343C       FieldChunk_BindArc
 0004:02163460       FieldChunk_UnbindArc
 0004:02163474       FieldChunk_BindMapTextures
 0004:0216347C       FieldChunk_UnbindMapTextures
 0004:02163484       FieldChunk_BindPropResInstanceBank
 0004:0216348C       FieldChunk_UnbindPropResInstanceBank
 0004:02163494       FieldPropSystem_InstantiateProp
 0004:021634CC       FieldChunk_ReleasePropInstance
 0004:02163504       FieldChunk_GetPropInstance
 0004:02163530       FieldChunk_ChangeDatID
 0004:02163594       FieldChunk_Disable
 0004:021635B8       FieldChunk_SetActive
 0004:021635BC       FieldChunk_IsActive
 0004:021635C0       FieldChunk_SetWorldPos
 0004:021635D0       FieldChunk_GetWorldPos
 0004:021635E0       FieldChunk_GetLoaderHandle
 0004:021635E8       GetChunkRawDataContainer
 0004:021635F0       FieldChunk_GetDatID
 0004:021635F8       FieldChunk_GetRawDataLength
 0004:02163600       FieldChunk_BindModel
 0004:02163610       FieldChunk_UnbindModel
 0004:02163620       FieldChunk_GetModelResource
 0004:02163628       FieldChunk_FreeTexRsc
 0004:02163638       FieldChunk_GetUsedTexRsc
 0004:02163640       FieldChunk_SetupModel
 0004:02163658       FieldChunk_GetModel
 0004:0216365C       FieldChunk_ResetStreamer
 0004:0216367C       FieldChunk_BeginLoad
 0004:021636E0       FieldChunk_UpdateStreamLoad
 0004:0216374C       FieldChunk_RenderMap
 0004:021637B8       pTrans
 0004:021637C8       pScale
 0004:021637D0       FieldChunk_RenderProps
 0004:021638A0       FieldChunk_IsTerrainReady
 0004:021638C0       FieldChunk_GetTerrain
 0004:02163908       FieldChunk_GetTerrainBaseLayer
 0004:02163940       FieldChunk_ResetProps
 0004:021639CC       FieldChunk_Reset
 0004:021639E8       FieldChunk_LinkMdlTex
 0004:02163A58       FieldChunk_DetachModelResource
 0004:02163A60       FieldChunk_CheckModelBBox
 0004:02163AD4       FieldChunk_CheckBBox
 0004:02163B28       FieldChunk_GetUsedTexRscCore
 0004:02163B48       FieldChunk_LoadAtOnce
 0004:02163B78       EventSave_Update
 0004:02163B90       jpt_2163B8E
 0004:02163C80       def_2163B8E
 0004:02163D5A       jpt_2163D58
 0004:02163D9E       def_2163D58
 0004:021644D0       s01E6_TrialHouseWorkInit
 0004:021644F8       s01E7_TrialHouseWorkDelete
 0004:02164518       s01E8_TrialHousePrepareParty
 0004:02164548       s01E9_TrialHouseCallTeamSelect
 0004:021645E8       s01EB_TrialHouseMsgDisp
 0004:02164638       s01EC_TrialHouseStartBattle
 0004:021646D4       s01EF_TrialHouseGetBattleTestRank
 0004:0216474C       s01F1_TrialHouseCalcPointsStars
 0004:021647C4       s01F3_TrialHouseSaveData
 0004:02164A2C       TransformVsPokePartyBySeason
 0004:02164B20       s021C_EntreeForestStartBattle
 0004:02164B88       s021B_EntreeForestSpawnAllPkm
 0004:02164C54       s021A_WordSetLoadEntreeForestPkmName
 0004:02164D3C       s0217_MapChangeEntreeForest
 0004:02164DF4       FieldScriptEnv_FindActor
 0004:02164E40       CreateEntreeForestPkmFromActor
 0004:02164E60       EventEntreeForestBattleCall_Create
 0004:02164EF0       EventEntreeForestBattleCall_Callback
 0004:02164F1A       jpt_2164F18
 0004:02165104       def_2164F18
 0004:02165194       EventEntreeForestWarp_Create
 0004:021651E4       EventEntreeForestWarp_CreateToAnother
 0004:02165228       EventEntreeForestWarp_Callback
 0004:02165258       jpt_2165256
 0004:02165300       def_2165256
 0004:02165468       detectLengthSinceLastSession
 0004:02165758       s020D_PokePartyFindEx
 0004:021657BC       jpt_21657BA
 0004:021659CC       setOneShotDRObtained
 0004:021659F4       isOneShotDRObtained
 0004:02165A2C       setupNameEntry
 0004:02165A8C       setupPokemonNameEntry
 0004:02165B0C       pokemonNameEntry
 0004:02165B5C       EventLeagueLiftWarp_Callback
 0004:02165B7E       jpt_2165B7C
 0004:02165C70       def_2165B7C
 0004:02165C78       EventLeagueLiftWarp_Create
 0004:02165D94       jpt_2165D92
 0004:02165EB8       def_2165D92
 0004:02165F16       jpt_2165F14
 0004:02165FA8       def_2165F14
 0004:02166360       jpt_216635E
 0004:021663DC       def_216635E
 0004:02166488       jpt_2166486
 0004:0216650E       def_2166486
 0004:021666A4       FldActSys_Create
 0004:02166700       FldActSys_Free
 0004:0216671C       FldActSys_ClearCache
 0004:0216672C       FldActSys_AttachField
 0004:021667B8       FldActSys_Update
 0004:021667CC       FldActSys_FinishAsyncMatLoadSafe
 0004:021667DC       FldActSys_ForceFullSync
 0004:02166818       CreateNewActorByEntity
 0004:021668B4       CreateNewActorByEntityNoWKOBJCODE
 0004:021668C0       CreateNewActorByParam
 0004:02166900       SpawnAllZoneNPCs
 0004:02166980       DeleteActor
 0004:021669E8       FldActSys_DeleteAllActors
 0004:02166A48       LoadZoneNPCParamsToMMDL
 0004:02166AB0       SetupNPCPositionBasic
 0004:02166AC4       LoadActorParamsByZoneNPC
 0004:02166B6C       SetupActorOnRailIfRail
 0004:02166B7C       InitActorZoneNPCGridPositon
 0004:02166C4C       InitNewActor
 0004:02166C8C       SetAllActorDirToDefault
 0004:02166CB4       UpdateActorMoveCodeExecutor
 0004:02166D30       FldActSys_SuspendAllActors
 0004:02166E84       IsAllActorAcmdFinished
 0004:02166EC8       FldAct_SetAcmd
 0004:02166F8C       CheckMMSysFlag
 0004:02166F94       FldActSys_SetFlag
 0004:02166F9C       ClearMMSysFlag
 0004:02166FA8       GetActorLimit
 0004:02166FB0       FldActSys_GetFieldHeapID
 0004:02166FB4       IncrementMMSysActorCount
 0004:02166FC0       FldActSys_DecrementActorCount
 0004:02166FCC       GetMMSysTCBMgr
 0004:02166FD0       GetMMSysDataArcHandle
 0004:02166FD4       FldActSys_BindFieldBlAct
 0004:02166FD8       FldActSys_GetFieldBlAct
 0004:02166FDC       FldActSys_BindActorG3DSystem
 0004:02166FE0       FldActSys_GetActorG3DSystem
 0004:02166FE4       GetMMSysG3DMapper
 0004:02166FE8       FldActSys_GetNoGridMapper
 0004:02166FEC       GetMMSysField
 0004:02167008       SetActorFlag
 0004:02167010       ClearActorFlag
 0004:0216701C       CheckActorFlag
 0004:02167028       SetActorMovementFlag
 0004:02167030       ClearActorMovementFlag
 0004:0216703C       CheckActorMovementFlag
 0004:02167044       SetMMDLActorUID
 0004:02167048       GetActorUID
 0004:0216704C       SetActorZoneID
 0004:02167050       GetActorZoneID
 0004:02167054       FldAct_SetObjCode
 0004:02167058       FldAct_GetObjCode
 0004:0216705C       SetActorMoveCode
 0004:02167060       GetActorMoveCode
 0004:02167064       SetActorEvType
 0004:02167068       GetActorEvType
 0004:0216706C       SetActorSpawnFlag
 0004:02167070       GetActorSpawnFlag
 0004:02167074       SetActorSCRID
 0004:02167078       FldAct_GetSCRID
 0004:0216707C       GetActorSCRIDIsMinusOne
 0004:02167094       GetDefaultActorDir
 0004:02167098       SetActorFaceDir
 0004:021670A0       CheckSetActorFaceDir
 0004:021670B8       GetActorFaceDir
 0004:021670C0       SetActorMotionDir
 0004:021670C8       GetActorMotionDir
 0004:021670CC       ChangeActorDirection
 0004:021670E0       SetActorUserParam
 0004:021670FC       GetActorUserParam
 0004:0216711C       SetActorAreaW
 0004:02167120       GetActorWalkAreaW
 0004:02167128       SetActorAreaH
 0004:0216712C       GetActorWalkAreaH
 0004:0216713C       GetActorMModelSystem
 0004:02167144       ClearActorPositionBlock
 0004:0216715C       GetNPCRailPosPtrAddr
 0004:02167198       FldAct_ResetBlActWork
 0004:021671B0       FldAct_GetBlActWorkPtr
 0004:021671F0       FldAct_InvokeOnCreateCallback
 0004:02167204       FldAct_InvokeUpdateCallback
 0004:02167218       FldAct_InvokeSuspendCallback
 0004:0216722C       FldAct_InvokeWakeUpCallback
 0004:02167240       FldAct_GetBlActIdx
 0004:02167258       SetNextActorAcmd
 0004:0216725C       FldAct_GetAcmd
 0004:02167264       FieldActor_NextAcmdState
 0004:0216726C       FldAct_GetAcmdState
 0004:02167270       SetCachedTileUnderActor
 0004:02167274       GetCachedTileUnderActor
 0004:02167278       SetCachedOrigYTileUnderActor
 0004:0216727C       GetCachedOrigYTileUnderActor
 0004:02167280       GetActorDefaultGPosX
 0004:02167288       SetActorDefaultGPosX
 0004:0216728C       SetActorDefaultGPosY
 0004:02167290       GetActorDefaultGPosZ
 0004:02167298       SetActorDefaultGPosZ
 0004:0216729C       GetActorInitGPos
 0004:021672B0       FldAct_GetInitGPosX
 0004:021672B8       SetActorInitialGPosX
 0004:021672BC       FldAct_GetInitGPosY
 0004:021672C4       SetActorInitialGPosY
 0004:021672C8       FldAct_GetInitGPosZ
 0004:021672D0       SetActorInitialGPosZ
 0004:021672D4       FldAct_GetGPos
 0004:021672E8       GetGPosX
 0004:021672F0       SetActorGPosX
 0004:021672F4       adjustXPos
 0004:02167300       FldAct_GetGPosY
 0004:02167308       SetActorGPosY
 0004:0216730C       adjustZPos
 0004:02167318       GetGPosZ
 0004:02167320       SetActorGPosZ
 0004:02167328       adjustYPos
 0004:02167334       GetMModelWPosPtr
 0004:02167338       CopyActorWPos
 0004:02167348       SetActorWPosValue
 0004:02167358       GetActorPosY
 0004:0216736C       SetActorWPosOffset
 0004:021673BC       FldAct_GetFieldBlAct
 0004:021673C8       GetActorCollWidth
 0004:021673D0       GetActorCollHeight
 0004:021673D8       CopyActorPosOffset
 0004:0216744C       DisableAllActorsMovement
 0004:02167490       EnableAllActorsMovement
 0004:02167508       IsActorFlag16
 0004:02167574       SetActorHidden
 0004:021675D8       SetActorFlag8000
 0004:0216760C       SetActorFlag256
 0004:02167628       DisableActorMovement
 0004:02167634       EnableActorMovement
 0004:021676B0       SetActorFlag32
 0004:021676C8       SetActorIsNonInteractibleFlag
 0004:021676E4       checkBit11Set
 0004:02167748       FldAct_SetReflectingFlag
 0004:02167764       FldAct_CheckReflectingFlag
 0004:021677B0       isBit19Set
 0004:0216784C       FldAct_SetShadowGroup
 0004:02167864       FldAct_GetShadowGroup
 0004:02167898       FldAct_IsForceOffShadow
 0004:021678B0       NextActor
 0004:021678F4       GetAllActorsOverGPos
 0004:02167954       GetFirstActorOnGPos
 0004:02167970       FindActorByGPos
 0004:02167988       FindActorByGPos_
 0004:02167A14       FindActorByMoveCode
 0004:02167A54       FindFieldActor
 0004:02167AA0       FindPlayerFieldActor
 0004:02167AAC       GetPtrToFirstFreeActorSlot
 0004:02167ADC       DeleteAllActors
 0004:02167BBC       FldAct_CheckObjCodeShared
 0004:02167C0C       SetActorWPosAll
 0004:02167C7C       SetActorGPos
 0004:02167CA4       FldAct_Transplant
 0004:02167CEC       ChangeActorMoveCodeSeq
 0004:02167D6C       FldAct_LoadVTable
 0004:02167D8C       ChangeActorUID
 0004:02167DA4       FldAct_Reset
 0004:02167E28       FldAct_UpdateBlInfoForNewObjCode
 0004:02167EB0       FldActSys_InitConfigArc
 0004:02167EC0       FldActSys_FreeConfigArc
 0004:02167ECC       LoadMModelSystemInfoCache
 0004:02167EDC       GetMMSysMdlInfoCacheEntry
 0004:02167F10       GetMMSysMdlInfoCacheEntryCount
 0004:02167F18       GetNPCMdlInfoForOBJCODE
 0004:02167FCC       LoadInfoForNewActorModelID
 0004:02167FF4       GetActorMdlInfo
 0004:02167FF8       GetNPCMdlInfoG2DRscGroup
 0004:02167FFC       GetNPCMdlInfoG3DRscGroup
 0004:02168000       ResolvePossibleWKOBJCODE
 0004:02168008       GetWKOBJCODENPCOBJCODE
 0004:02168030       GetMoveCodeExecutorFunction
 0004:0216803C       FldAct_GetMainVTableAddr
 0004:02168048       IsNPCSCRID0xFFFF
 0004:0216805C       CheckNPCSpawnFlag
 0004:02168074       jpt_2168072
 0004:02168092       def_2168072
 0004:02168094       nullsub_145
 0004:02168098       nullsub_146
 0004:0216809C       nullsub_147
 0004:021680A0       nullsub_148
 0004:021680C0       IsStrengthRockLastPositionInSaveData
 0004:021680E8       GetStrengthRockSaveDataPositionSlotID
 0004:02168124       GetActorSaveDataPositionSlotID
 0004:02168154       IsActorLastPositionInSaveData
 0004:02168178       LoadSaveDataStrengthRockPosition
 0004:021682C4       IsNPCStrengthRock
 0004:021684A8       burmyTransform
 0004:021684FC       EventWildBattleCall_Callback
 0004:02168524       jpt_2168522
 0004:0216867A       def_2168522
 0004:02168684       EventWildBattleCall_CreateCore
 0004:021686F8       EventWildBattleCall_Create
 0004:0216870C       EventTrainerBattleCall_Create
 0004:021688A0       CreateTrialHouseBattleEvent
 0004:021689A4       EventCaptureDemo_Create
 0004:02168B00       LoadTradedPokemonBattleStats
 0004:02168BEC       EventBattleCall_Callback
 0004:02168C1E       jpt_2168C1C
 0004:02168E68       def_2168C1C
 0004:021690E0       IsBattleResultDefeat
 0004:02169104       GetWildBattleResultByCombined
 0004:02169114       EventBattleCall_IsResultDefeat
 0004:02169128       EventBattleCall_SyncGameDataOnReturn
 0004:0216915C       EventBattleCall_Setup
 0004:02169184       EventBattleCall_ReleaseBtlSetup
 0004:021692FA       jpt_21692F8
 0004:0216935A       def_21692F8
 0004:02169CEC       PokeParty_GetRememberableMoves
 0004:02169E44       doesPkmHaveLevelMoveToLearn
 0004:02169E58       G3DTextDraw_CreateResource
 0004:02169FF4       G3DTextDraw_PrepareBitmap
 0004:0216A018       G3DTextDraw_RenderBitmap
 0004:0216A044       G3DTextDraw_BitmapTiledToLinear
 0004:0216A0F8       G3DTextDraw_StringToTexture
 0004:0216A1A8       G3DTextDraw_ConvertPalette
 0004:0216A1D0       CheckPassPowerUnlocked
 0004:0216A250       GetUnlockedPassPowerCount
 0004:0216A27C       InitFieldFollowWk
 0004:0216A2A0       FreeFieldFollowWk
 0004:0216A2B4       GameData_CheckPairFlag
 0004:0216A2C8       setupNpcFollower
 0004:0216A358       ShutdownFollowWork
 0004:0216A398       TryRespawnFollowActor
 0004:0216A46C       updateFollowerModel
 0004:0216A4F4       getFollowFlagStatus
 0004:0216A520       GetNowFollowerAllyTrID
 0004:0216A53C       GetFollowActorOriginActorID
 0004:0216A548       GetFollowWkIsPersistent
 0004:0216A558       ClearFollowNpcData
 0004:0216A57C       s0250_ActorPairSet
 0004:0216A620       s0251_ActorPairEnd
 0004:0216A68C       s0252_ActorPairGetTrID
 0004:0216A6B0       s0253_ActorPairSetMoveEnable
 0004:0216A89C       s02AF_GameGetDifficulty
 0004:0216A914       s02B0_CallUnovaLinkKeyUnlock
 0004:0216AC00       s02B8_PedometerStart
 0004:0216AC1C       s02B9_PedometerEnd
 0004:0216AC38       s02BA_PedometerGet
 0004:0216AC68       GetHiddenHollowEntranceParam
 0004:0216AC78       jpt_216AC76
 0004:0216ACA0       def_216AC76
 0004:0216AD04       s02C6_JoinAvenueStoreStart
 0004:0216AD20       s02C6_JoinAvenueStoreEnd
 0004:0216AD64       s02E3_LensFlareRequest
 0004:0216AD7C       EventFieldOpenRestoreLCD_Create
 0004:0216ADA4       EventFieldOpenRestoreLCD_Callback
 0004:0216ADE4       FieldG3D_RestoreSurface
 0004:0216AFD8       GLOBAL_SCRIPT_TABLE
 0004:0216B230       EVCMD_PERM_TABLE
 0004:0216B524       EVCMD_MAX
 0004:0216B528       VM_CMP_LUT
 0004:0216B53C       FIELD_SCRIPT_SUB_EVENT_FINISH_FUNCS
 0004:0216B578       EVCMD_TABLE
 0004:0216C144       OVL53_ZONES
 0004:0216C146       OVL51_ZONES
 0004:0216C148       OVL55_57_ZONES
 0004:0216C14A       OVL63_ZONES
 0004:0216C14C       OVL55_56_ZONES
 0004:0216C14E       OVL58_59_ZONES
 0004:0216C152       OVL67_ZONES
 0004:0216C158       OVL68_ZONES
 0004:0216C15E       OVL66_ZONES
 0004:0216C166       OVL62_ZONES
 0004:0216C16E       OVL52_ZONES
 0004:0216C178       OVL54_ZONES
 0004:0216C182       OVL64_ZONES
 0004:0216C196       OVL50_ZONES
 0004:0216C1AC       OVL61_ZONES
 0004:0216C1C4       OVL65_ZONES
 0004:0216C1EC       SCRIPT_PLUGIN_TABLE
 0004:0216C340       EVENT_MAP_REPLACE_TABLE
 0004:0216C37C       RESPAWN_ZONE_INFO
 0004:0216C9E8       rebattle_trainer_ids
 0004:0216CA44       wf_location
 0004:0216CA46       stats_list
 0004:0216CA5A       iv_set
 0004:0216CA5C       iv_val
 0004:0216CA92       ROAMING_POKEMON_ZONES
 0004:0216CAB8       ABYSSAL_RUINS_FLASH_ROCK_RADIUS
 0004:0216CAC0       ABYSSAL_RUINS_STRENGTH_ROCK_RADIUS
 0004:0216CAC8       HIDEN_EVENTS_NORMAL
 0004:0216CB20       HIDEN_EVENTS_RUINS
 0004:0216CB90       TYPE_CHAMP_MEDAL_IDS
 0004:0216CBD8       FIELD_PROC_LINK_LIST
 0004:0216CD40       ACMD_QUEUE_WALK_E_8F
 0004:0216CD48       ACMD_QUEUE_WALK_W_8F
 0004:0216CD50       ACMD_QUEUE_WALK_S_8F
 0004:0216CD58       ACMD_QUEUE_WALK_N_8F
 0004:0216CD60       JUMP_ANY_HEIGHT_TABLE
 0004:0216CDB8       DIRECTION_VEC_Z
 0004:0216CDC8       DIRECTION_VEC_X
 0004:0216CDD8       TILE_ENTER_BLOCK_CHECKS
 0004:0216CDE8       TILE_EXIT_BLOCK_CHECKS
 0004:0216CDF8       INV_DIR_TABLE
 0004:0216CE24       FIELD_COMMON_EVENTS
 0004:0216CE54       FIELD_ACTION_BLOCK_CHECKS
 0004:0216CE84       HIDDEN_ITEMS
 0004:0216D6D8       DAYS_PER_MONTH
 0004:0216DAC8       FIELD_CHUNK_SCALE_IDENTITY
 0004:0216DAD4       FIELD_CHUNK_TRANSLATION_IDENTITY
 0004:0216DAE0       FIELD_CHUNK_ROTATION_IDENTITY
 0004:0216DC5C       oneShotDreamRadarLUT
 0004:0216DD5C       WILD_BATTLE_RESULT
 0004:0216DD7C       BTL_RESULT_LUT
 0004:0216DE44       TEX_DIM_LUT
 0004:0216DE98       HIDDEN_HOLLOW_ENTRANCES
 0004:0216DFE0       aEvent_ircbattle_c
 0004:0216DFF4       aMusical_event_c
 0004:0216E010       aMusical_dressup_sys_c
 0004:0216E034       aMusical_stage_sys_c
 0004:0216E048       aMusical_program_c
 0004:0216E060       aPlay_categoryD
 0004:0216E0E8       aDelivery_beacon_c
 0004:0216E0FC       aPworkAinit_data0_data
 0004:0216E1C0       aDelivery_irc_c
 0004:0216E1D0       aScript_sys_c
 0004:0216E1E4       aIdDEndD
 0004:0216E1F4       aScript_work_c
 0004:0216E204       aMap_matrix_c
 0004:0216E214       aMap_replace_c
 0004:0216E224       aScrcmd_work_c
 0004:0216E234       aScrcmd_pokemon_c
 0004:0216E248       aScrcmd_proc_c
 0004:0216E258       aScrcmd_sodateya_c
 0004:0216E26C       aScrcmd_musical_c
 0004:0216E280       aField_encount_st_c
 0004:0216E294       aScrcmd_network_c
 0004:0216E2A8       aEvent_shortcut_menu_c
 0004:0216E2C0       aEvent_field_proclink_
 0004:0216E2D8       aEventdata_system_c
 0004:0216E2EC       aCalender_c
 0004:0216E2F8       aGame_beacon_search_c
 0004:0216E310       aSymbol_map_c
 0004:0216E324       aComm_player_c
 0004:0216E338       a0_9
 0004:0216E33C       aGamesystem_checkfield
 0004:0216E36C       aCpsAct_ctrlNull
 0004:0216E384       aCpsNullIndexComm_play
 0004:0216E3AC       aFld_btl_inst_tool_c
 0004:0216E3C0       aField_g3d_map_c
 0004:0216E3D0       aReport_event_c
 0004:0216E3E0       aNamein_setup_c
 0004:0216E3F0       RELOADABLE_STRENGTH_ROCKS
 0004:0216E600       aFldmmdl_c
 0004:0216E61C       aEvent_battle_c
 0004:0216E62C       aTrcard_sys_c
 0004:0216E63C       aWaza_oshie_c
 0004:0216E64C       aPair_sys_c
 0004:0216E658       aScrcmd_keysystem_c
 0001:0216E680       g_ActiveFieldScriptSubEvents
 0006:02170380       probabilityLoop
 0006:0217039C       insideProbabilityLoop
 0006:0217045C       s01FF_SurveyGetCurrentQuestionID
 0006:02170490       s0200_SurveyGetCurrentAnswerIDs
 0006:021704F0       s0204_SurveyGetTime
 0006:0217060C       s0201_SurveyGetPopularOptionMsgID
 0006:021708FC       getSurveyText
 0006:02170AB4       GetTrainerCardTextMSGID
 0006:02170B04       getTextFileForFestMissions
 0006:02170E78       probability_table
 0006:02171220       aFest_mission_data_c
 000E:02176B40       EntreeForest_SpawnPkmActor
 000E:02176BE4       GetEntreeForestActorParamBits
 000E:02176C04       GetActorUserParam0
 000E:02176CEC       EntreeForest_SpawnAllPokemon
 000E:02176E14       jpt_2176E12
 000E:02176EF4       def_2176E12
 000E:02176F04       CheckEntralinkForestFirstWarpEvent
 000E:02176FD0       s0279_FunfestBGMReturn
 000E:0217702C       s0276_FunfestMissionBroadcast
 000E:02177060       s0277_FunfestActorDelete
 000E:021770B8       s027A_FunfestGetGenericInfo
 000E:02177110       s027B_FunfestGetItemExchangeInfo
 000E:02177190       s027C_FunfestGetItemSaleInfo
 000E:021771F4       s027D_FunfestGetPokemonQuizInfo
 000E:02177258       s027E_FunfestGetPokemonQuizSpecies
 000E:021772B0       s027F_FunfestGetPokemonQuizBogusSpecies
 000E:02177368       s0274_FunfestMissionStart
 000E:0217738C       s028B_CallEntralinkWarpOut
 000E:02177448       EventEntralinkWarpIn_CheckAllowed
 000E:021775B4       EventCGearShutdown_Create
 000E:021775E0       EventCGearShutdown_Callback
 000E:02177628       EventPhraseInput_Create
 000E:021776CE       jpt_21776CC
 000E:0217770C       def_21776CC
 000E:02177718       EventPhraseInput_Callback
 000E:021777A6       jpt_21777A4
 000E:0217781A       def_21777A4
 000E:021778DC       jpt_21778DA
 000E:02177944       def_21778DA
 000E:02177B60       jpt_2177B5E
 000E:02177C0A       def_2177B5E
 000E:02177E30       jpt_2177E2E
 000E:02177EFE       def_2177E2E
 000E:02177FE8       GetActorIDOfMysteryGiftDeliveryMan
 000E:02178010       IsMysteryGiftDeliveryManActorAvailable
 000E:02178028       FindMysteryGiftDeliveryManActor
 000E:0217806C       FindMysteryGiftDeliveryManNPCID
 000E:02178138       doesPartyHaveSpace
 000E:02178488       ScriptNative_SurfTCBWait
 000E:021784A8       s00C5_CallSurf
 000E:02178514       ScriptNative_WaterfallTCBWait
 000E:02178534       s00C6_CallWaterfall
 000E:02178584       s00C7_CallCut
 000E:021785B0       s00C8_CallDiving
 000E:02178604       EventSweetScent_Create
 000E:02178654       EventSweetScent_Callback
 000E:02178670       jpt_217866E
 000E:02178762       def_217866E
 000E:021787E0       jpt_21787DE
 000E:0217887A       def_21787DE
 000E:021789A4       EventFly_Callback
 000E:021789DE       jpt_21789DC
 000E:02178A22       def_21789DC
 000E:02178D6C       jpt_2178D6A
 000E:02178E06       def_2178D6A
 000E:02179008       species
 000E:02179200       CreateSurfPos
 000E:021792CC       EventFieldFishing_Create
 000E:021793F8       EventFieldFishing_Callback
 000E:02179412       jpt_2179410
 000E:021794C0       def_2179410
 000E:021796A4       EventDendouMachine_Create
 000E:021796C4       EventDendouMachine_Callback
 000E:021796DC       jpt_21796DA
 000E:02179734       def_21796DA
 000E:02179740       EventDendouMachine_Init
 000E:021797DC       EventDendouMachine_End
 000E:021797EC       EventDendouMachine_SpawnMonsBall
 000E:0217984C       EventDendouMachine_StartAnimations
 000E:02179884       EventDendouMachine_IsAnimationDone
 000E:02179898       countNonEggsInParty
 000E:0217993C       pcEntrySound
 000E:02179956       jpt_2179954
 000E:021799EC       def_2179954
 000E:021799FC       CreatePCSoundCallEvent
 000E:02179AC4       pcLogOffSound
 000E:02179B94       EventPokeCenHeal_Create
 000E:02179BB8       EventPokeCenHeal_Callback
 000E:02179BD2       jpt_2179BD0
 000E:02179C6A       def_2179BD0
 000E:02179C74       sndId
 000E:02179C78       EventPokeCenHeal_Init
 000E:02179CFC       EventPokeCenHeal_End
 000E:02179D1C       EventPokeCenHeal_ChangeState
 000E:02179D24       EventPokeCenHeal_SpawnMonsBall
 000E:02179D84       EventPokeCenHeal_StartAnimations
 000E:02179DBC       EventPokeCenHeal_PauseAnimation
 000E:02179DE4       EventPokeCenHeal_IsAnimationDone
 000E:02179ED8       CheckAbyssalRuinsStepEvent
 000E:02179F44       EventDiveIn_Callback
 000E:02179F60       jpt_2179F5E
 000E:0217A016       def_2179F5E
 000E:0217A024       EventDiveOut_Callback
 000E:0217A046       jpt_217A044
 000E:0217A0D8       def_217A044
 000E:0217A0E0       targetFogOffset
 000E:0217A0E4       EventDiveIn_Create
 000E:0217A10C       CreateDiveOutEvent
 000E:0217A1F0       s0157_ActorAnimationInit
 000E:0217A240       s0158_ActorAnimationFree
 000E:0217A260       s0159_ActorAnimationPlay
 000E:0217A288       EventActorAnmProcWait_Callback
 000E:0217A29C       s015A_ActorAnimationWait
 000E:0217A2D8       FieldActorAnmProc_Create
 000E:0217A330       FieldActorAnmProc_Free
 000E:0217A340       FieldActorAnmProc_Play
 000E:0217A38C       FieldActorAnmProc_IsPlaying
 000E:0217A3A0       FieldActorAnmProc_Update
 000E:0217A430       FieldActorAnmProc_Draw
 000E:0217A434       FieldActorAnmProc_CommitTransform
 000E:0217A4E0       FieldTradeInput_Create
 000E:0217A570       FieldTradeInput_Free
 000E:0217A590       FieldTradeInput_GetSpecies
 000E:0217A598       FieldTradeInput_GetWantedSpecies
 000E:0217A5A0       FieldTradeInput_GetWantedSex
 000E:0217A5A8       FieldTradeInput_LoadName
 000E:0217A5D0       EventFieldTrade_CreatePkm
 000E:0217A754       EventFieldTrade_DebugLogPkm
 000E:0217A8A8       EventFieldTrade_Callback
 000E:0217A8DE       jpt_217A8DC
 000E:0217A9FA       def_217A8DC
 000E:0217AA18       EventFieldTrade_Create
 000E:0217ABCC       LoadUnityTowerVisitorWordSet
 000E:0217ACB0       CreateTrialHouseWk
 000E:0217AD8C       TrialHouseWorkDelete
 000E:0217AE3E       jpt_217AE3C
 000E:0217AE5E       def_217AE3C
 000E:0217AFBE       jpt_217AFBC
 000E:0217B0EA       def_217AFBC
 000E:0217B0F4       TrialHouseCalcPointScore
 000E:0217B982       jpt_217B980
 000E:0217B9B6       def_217B980
 000E:0217BC0C       jpt_217BC0A
 000E:0217BCBA       def_217BC0A
 000E:0217BE10       jpt_217BE0E
 000E:0217BE2E       def_217BE0E
 000E:0217C14C       blkgroupID
 000E:0217C17C       jpt_217C17A
 000E:0217C190       def_217C17A
 000E:0217C1BE       jpt_217C1BC
 000E:0217C276       def_217C1BC
 000E:0217C368       randFFFFFFFFdivFFFF
 000E:0217C434       pos
 000E:0217C518       POKECEN_HEAL_MONSBALL_POSITIONS
 000E:0217C560       ABYSSAL_RUINS_DULL_SOUND_SCRIPTS
 000E:0217C574       FIELD_ACTOR_ANM_IS_ALLOW_MOVE_ON_END
 000E:0217C58C       FIELD_ACTOR_ANM_ASYNC_PROC_TEMPLATE
 000E:0217C5FC       a2efy
 000E:0217C640       aPdw_postman_c
 000E:0217C650       aEvent_game_manual_c
 000E:0217C664       aFld_trade_c
 000E:0217C670       aTrial_house_c
 000E:0217C680       aBsubway_scr_c
 0007:0217C980       CreateGameEntryPointEvent
 0007:0217C9A4       EventGameOpening_Callback
 0007:0217C9CA       jpt_217C9C8
 0007:0217CA3E       def_217C9C8
 0007:0217CA44       mask
 0007:0217CA48       EventGameOpening_Create
 0007:0217CAA0       EventFieldFirst_Callback
 0007:0217CACA       jpt_217CAC8
 0007:0217CB84       def_217CAC8
 0007:0217CB8C       EventFieldFirst_Create
 0007:0217CC28       lcdc
 0007:0217CC60       EventFieldContinue_Callback
 0007:0217CC8C       jpt_217CC8A
 0007:0217CDC8       def_217CC8A
 0007:0217CDD8       EventFieldContinue_Create
 0007:0217CEAC       EventMapChange_LoadSeasons
 0007:0217CF0C       EventMapChange_SetupWarpSequenceOut
 0007:0217CF90       EventMapChange_SetupWarpSequenceIn
 0007:0217D030       EventMapChangeCore_Callback
 0007:0217D05E       jpt_217D05C
 0007:0217D0EC       def_217D05C
 0007:0217D2F0       EventMapChangeCore_Create
 0007:0217D318       EventMapChangeWarp_Callback
 0007:0217D334       jpt_217D332
 0007:0217D39C       def_217D332
 0007:0217D3A0       EventMapChange_Callback
 0007:0217D3CE       jpt_217D3CC
 0007:0217D3E6       def_217D3CC
 0007:0217D420       EventMapChangeEnding_Callback
 0007:0217D464       EventMapChangeFakeWarp_Callback
 0007:0217D54C       EventMapChangeQuicksand_Callback
 0007:0217D578       jpt_217D576
 0007:0217D5E2       def_217D576
 0007:0217D5E8       EventMapChangeEscapeRope_Callback
 0007:0217D614       jpt_217D612
 0007:0217D6AA       def_217D612
 0007:0217D6B0       EventMapChangeDig_Callback
 0007:0217D6DC       jpt_217D6DA
 0007:0217D772       def_217D6DA
 0007:0217D778       EventMapChangeTeleport_Callback
 0007:0217D7A4       jpt_217D7A2
 0007:0217D828       def_217D7A2
 0007:0217D830       EventMapChangeDiveOut_Callback
 0007:0217D858       jpt_217D856
 0007:0217D8C8       def_217D856
 0007:0217D8D0       EventMapChangeDiveIn_Callback
 0007:0217D8F0       jpt_217D8EE
 0007:0217D964       def_217D8EE
 0007:0217D970       EventMapChangeWarpPad_Callback
 0007:0217DA14       EventMapChangeUnionRoomExit_Callback
 0007:0217DA34       jpt_217DA32
 0007:0217DA92       def_217DA32
 0007:0217DAA4       EventUnionRoomWarp_Callback
 0007:0217DAC6       jpt_217DAC4
 0007:0217DB26       def_217DAC4
 0007:0217DB34       InitMapChangeEvent
 0007:0217DB80       EventMapChangeWarp_CreateGrid
 0007:0217DBDC       EventMapChangeWarp_CreateRail
 0007:0217DC3C       EventMapChange_CreateRail
 0007:0217DC94       EventMapChangeQuicksand_Create
 0007:0217DCE8       EventMapChangeEscapeRope_Create
 0007:0217DD40       EventMapChangeDig_Create
 0007:0217DD94       EventMapChangeTeleport_Create
 0007:0217DDDC       EventMapChangeDiveOut_Create
 0007:0217DE28       EventMapChangeDiveIn_Create
 0007:0217DEA4       EventMapChangeWarpPad_Create
 0007:0217DF00       EventUnionRoomWarp_Create
 0007:0217DF54       EventMapChangeUnionRoomExit_Create
 0007:0217DF98       EventEntralinkWarpIn_Create
 0007:0217E020       EventEntralinkWarp_CreateOut
 0007:0217E098       EventEntralinkWarp_CreateReturnLocation
 0007:0217E108       EventMapChangeWarp_CreateFromEntity
 0007:0217E1B8       EventMapChange_CreateGrid
 0007:0217E218       EventMapChange_CreateGridDefault
 0007:0217E234       EventMapChange_CreateForFly
 0007:0217E29C       EventMapChangeFakeWarp_Create
 0007:0217E2F4       EventMapChangeEnding_Create
 0007:0217E354       FieldMapControl_LoadBlackoutZone
 0007:0217E3C0       EventMapChangeBlackout_Callback
 0007:0217E3DA       jpt_217E3D8
 0007:0217E442       def_217E3D8
 0007:0217E448       EventMapChangeBlackout_Create
 0007:0217E484       ConvWarpDirToAngle
 0007:0217E4B4       SetupZoneChangeSpawn
 0007:0217E4EC       FieldMapControl_InitSpawn
 0007:0217E61C       CallSpawnAllZoneNPCs
 0007:0217E660       GameData_DeleteAllActors
 0007:0217E794       GameData_UpdateFlashStatus
 0007:0217E7C8       FieldMapControl_LoadZone
 0007:0217E924       FieldMapControl_DeleteAllActors
 0007:0217E93C       Field_SetPlayerHidden
 0007:0217E950       GameData_SetGimmickByZone
 0007:0217E9B0       EventEntralinkWarpIn_CreateCore
 0007:0217EA00       EventEntralinkWarp_Create
 0007:0217EA4C       EventEntralinkWarp_Callback
 0007:0217EA6C       jpt_217EA6A
 0007:0217EB3C       def_217EA6A
 0007:0217EB4C       EventEntralinkWarpIn_Callback
 0007:0217ECB4       GameData_AdjustPlayerStateOnDiveOut
 0007:0217ED58       nullsub_142
 0007:0217EE98       EventSeasonBanner_Callback
 0007:0217EEB0       jpt_217EEAE
 0007:0217EED8       def_217EEAE
 0007:0217EF04       EventSeasonBanner_CreateFieldTransition
 0007:0217EF6C       EventSeasonBanner_CreateFieldTransitionEx
 0007:0217EFCC       EventSeasonBanner_CreateStandalone
 0007:0217F024       EventSeasonBanner_InitRenderer
 0007:0217F048       EventSeasonBanner_InitRendererFieldOpen
 0007:0217F084       EventSeasonBanner_InitRendererStandalone
 0007:0217F0D0       gfx
 0007:0217F0D8       EventSeasonBanner_FreeRenderer
 0007:0217F0FC       EventSeasonBanner_FreeRendererFieldOpen
 0007:0217F100       EventSeasonBanner_FreeRendererStandalone
 0007:0217F110       EventSeasonBanner_LoadGraphics
 0007:0217F126       jpt_217F124
 0007:0217F12E       def_217F124
 0007:0217F1D4       EventSeasonBanner_UpdateRenderFX
 0007:0217F1FC       EventSeasonBanner_UpdateRenderFXFieldOpen
 0007:0217F2FC       EventSeasonBanner_UpdateRenderFXStandalone
 0007:0217F380       EventSeasonBanner_GetUpdatedState
 0007:0217F396       jpt_217F394
 0007:0217F3DE       def_217F394
 0007:0217F3E4       EventSeasonBanner_ProcessState
 0007:0217F3FC       jpt_217F3FA
 0007:0217F484       def_217F3FA
 0007:0217F490       EventSeasonBanner_Update
 0007:0217F4B0       EventSeasonBanner_SetFieldBannerFlag
 0007:0217F4C0       EventSeasonBanner_End
 0007:0217F4E4       EventSeasonBanner_GetType
 0007:0217F4E8       EventSeasonBanner_CheckUserSkipped
 0007:0217F4EC       EventSeasonBanner_SetCancelled
 0007:0217F4F4       EventSeasonBanner_CheckTimerEnd
 0007:0217F504       EventSeasonBanner_GetFadeInTime
 0007:0217F518       EventSeasonBanner_GetFadeOutTime
 0007:0217F538       EventSeasonBanner_GetStayTime
 0007:0217F558       EventSeasonBanner_InvokeCallback
 0007:0217F588       SEASON_BANNER_LCD_CONFIG
 0007:0217F598       SEASON_BANNER_BG3_SETUP
 0007:0217F5B8       SEASON_BANNER_VRAM_CONFIG
 0007:0217F600       aEvent_mapchange_c
 0007:0217F624       aEl_scoreboard_c
 0008:0217F640       FieldmapProc_Init
 0008:0217F714       FieldmapProc_Update
 0008:0217F72C       FieldmapProc_End
 0008:0217F77C       Field_Create
 0008:0217F878       Field_Free
 0008:0217F89C       FieldRoutine_Open
 0008:0217F9AC       FieldRoutine_MapLoad
 0008:0217F9D6       jpt_217F9D4
 0008:0217FE06       def_217F9D4
 0008:0217FE30       FieldRoutine_MapSpawnFinish
 0008:0217FFA4       FieldRoutine_Run
 0008:02180114       Field_RenderStart
 0008:0218015C       FieldRoutine_RunAltFrame
 0008:021801E4       FieldRoutine_MapUnload
 0008:02180350       FieldRoutine_Close
 0008:021803D4       Field_CallRoutines
 0008:02180454       Field_RequestClose
 0008:02180464       Field_CheckMapLoadFinished
 0008:02180474       Field_ToggleCycling
 0008:021804D0       Field_GetMsgBGSys
 0008:021804D4       Field_GetCameraSystem
 0008:021804D8       Field_GetNoGridMapper
 0008:021804DC       Field_GetLightSystem
 0008:021804E0       Field_GetFog
 0008:021804E4       Field_GetFogCtrl
 0008:021804E8       Field_GetWeatherSystem
 0008:021804EC       Field_GetWeatherForZone
 0008:021804F8       Field_GetActorSystem
 0008:021804FC       Field_GetGameSystem
 0008:02180500       Field_GetHeapID
 0008:02180504       Field_GetEffectBlAct
 0008:0218050C       Field_GetWildEffectBlAct
 0008:02180514       Field_GetG3DMapper
 0008:02180518       Field_GetPlayerStateZoneID
 0008:02180520       Field_GetController
 0008:02180528       Field_SetController
 0008:02180530       Field_GetPlayer
 0008:02180538       Field_HasPlayer
 0008:02180548       Field_GetSubscreen
 0008:0218054C       Field_GetFieldEffects
 0008:02180554       Field_GetG3DObjSys
 0008:02180564       Field_GetEncountSystem
 0008:0218056C       Field_GetControllerTypeID
 0008:02180578       Field_GetResolvedControllerTypeID
 0008:0218059C       Field_GetPlaceName
 0008:021805A0       Field_GetFesGimmick
 0008:021805A4       Field_GetAsyncProcMgr
 0008:021805AC       Field_GetExpObjSystem
 0008:021805B0       Field_GetTCBMgr
 0008:021805B8       Field_GetTaskManager
 0008:021805C0       Field_SetPlayerPosPtr
 0008:021805C8       Field_GetMoneyWin
 0008:021805CC       Field_SetMoneyWin
 0008:021805D0       Field_GetDayCare
 0008:021805D8       Field_GetAreaData
 0008:021805DC       FieldG2D_Init
 0008:02180620       FieldG2D_SetLCDConfig
 0008:02180630       FieldG2D_Prepare3DSurface
 0008:021806B0       FieldG2D_GetDispControl
 0008:021806B8       Field_FreeGraphicsSystems
 0008:021806D0       FieldG3D_InitCallback
 0008:02180764       FieldG3D_Init
 0008:02180864       offsY
 0008:02180884       FieldG3D_Update
 0008:02180910       FieldG3D_RenderPhase1
 0008:02180938       FieldG3D_RenderPhase2
 0008:02180954       FieldG3D_Free
 0008:02180994       FldActSys_AsyncMatLoadTCBFunc
 0008:021809CC       FldActSys_VRAMUploadFunc
 0008:021809E0       Field_LoadEdgeColorTable
 0008:02180A4C       Field_LoadActorMatColorPreset
 0008:02180A90       Field_InitActorSystem
 0008:02180B28       Field_SuspendActorSystem
 0008:02180B40       Field_CheckDoRealTimeLoad
 0008:02180BA0       Field_UpdateZoneStatePos
 0008:02180BE4       Field_ShouldSwapZone
 0008:02180C34       Field_SwapZoneByMatrix
 0008:02180D74       Field_HotswapSpawnActors
 0008:02180DA4       Field_SwapZoneBGM
 0008:02180DEC       Field_SwapWeather
 0008:02180E18       Field_CheckGiveDiamondDustMedal
 0008:02180E38       Field_SwapFog
 0008:02180E68       Field_UpdatePlayerStateZoneID
 0008:02180E7C       Field_SwapCameraBoundaries
 0008:02180E88       Field_ResetController
 0008:02180E94       FieldCameraBoundary_ChangeZone
 0008:02180EC0       Field_LoadWFBC
 0008:02180EFC       Field_LoadJoinAvenue
 0008:02180F50       Field_LoadSceneArea
 0008:02180FDA       jpt_2180FD8
 0008:02180FFA       def_2180FD8
 0008:02181030       Field_AllocGimmickWorkBlock
 0008:0218106C       Field_DeleteGimmickWorkBlock
 0008:02181088       Field_CheckGimmickWorkPassword
 0008:0218109C       Field_GetGimmickWorkBlock
 0008:021810BC       FieldRenderPhase1_Fieldmap
 0008:021810F0       FieldRenderPhase2_Fieldmap
 0008:02181278       FieldRenderPhase2_FieldEffect
 0008:021812A0       clearDepth
 0008:021812A4       FieldRenderPhase2_EncountEffect
 0008:021812C8       clearColor
 0008:021812D0       Field_GetRenderMode
 0008:021812D8       Field_SetRenderMode
 0008:021812E0       Field_Get3DCi
 0008:021812E8       Field_GetEncEff
 0008:021812F0       Field_GetSkillMapEff
 0008:021812F8       Field_GetSceneArea
 0008:021812FC       Field_SetFadeFlag
 0008:02181304       Field_GetFadeFlag
 0008:0218130C       Field_IsEventRunning
 0008:02181318       Field_GetDayPeriod
 0008:02181328       Field_GetSeasonBannerOverdrawFlag
 0008:02181330       Field_SetSeasonBannerOverdrawFlag
 0008:02181338       Field_SetEffectRunningFlag
 0008:02181340       Field_GetNDemoDataHandle
 0008:02181348       Field_SetCasteliaRush
 0008:02181350       Field_GetCasteliaRush
 0008:02181358       Field_GetLensFlare
 0008:02181360       Field_GetColorPostFX
 0008:021813B8       GetZoneFogIndexAll
 0008:021813DC       GetObjectProjectionMatrixOffset
 0008:02181438       IsZoneTwoPassLoad
 0008:02181474       GetZoneMapType2
 0008:0218147C       SetupLoadZoneMapTypeData
 0008:021814F4       GetZoneFieldmapCtrlVTable
 0008:02181508       GetFieldmapZoneHeapSize
 0008:0218151C       FieldEventProvider_Grid_CheckForEvent
 0008:0218189C       FieldEventProvider_Grid
 0008:0218190C       FieldEventProvider_UnionRoom
 0008:02181A68       FieldEventProvider_NoGrid
 0008:02181AA0       FieldEventProvider_NoGrid_CheckForEvent
 0008:02181CF0       FieldEventProvider_Hybrid
 0008:02181D14       FieldEventProvider_InitCheckData
 0008:02181F58       GameData_UpdateGlobalStepCounter
 0008:02181F84       GameData_UpdateUserStepCounter
 0008:02181FA0       CheckReserveEventScriptCall
 0008:02181FD4       CheckNoneDirTriggerScrEvent
 0008:02181FEC       CheckTriggerScrEvent
 0008:02182058       CheckMoveDirChangeTriggerScrEvent
 0008:0218208C       CheckDirChangeTriggerScrEvent
 0008:021820E0       CheckQuicksandEvent
 0008:021821D4       CheckPerStepEvents
 0008:02182288       PokeParty_UtilGetEggHatchSpeed
 0008:021822D0       PokeParty_UtilUpdateHatchSteps
 0008:0218232C       GameData_UpdateEggCycles
 0008:02182368       isEggReadyToHatch
 0008:021823AC       CheckEggHatchEvent
 0008:021823F8       UpdatePerStepHappiness
 0008:02182464       UpdateAbyssalRuinsSteps
 0008:021824A8       CheckRepelEvent
 0008:02182520       hollowSet
 0008:02182580       CheckPhenomenonEvent
 0008:02182628       CheckWarpMapChangeEvent
 0008:02182680       CheckExternalPushMoveEvents
 0008:02182744       GetWarpForWalkIn
 0008:02182788       FieldInteractWk_CalcPlayerFrontPos
 0008:0218280C       CheckWarpDirectionMatch2
 0008:021828D0       CheckAutoTileEvents
 0008:02182B38       CheckCallRandomEncounter
 0008:02182C38       EventSurfExit_Callback
 0008:02182C64       jpt_2182C62
 0008:02182CE2       def_2182C62
 0008:02182CE8       EventSurfExit_Create
 0008:02182D14       CheckSurfExitEvent
 0008:02182DC4       FindActorForInteraction
 0008:02182E94       CheckFieldEnvInteraction
 0008:02182F54       GameData_FindPartyPkmByMove
 0008:0218308C       FieldPropSystem_Create
 0008:02183130       FieldPropSystem_Free
 0008:02183174       FieldPropSystem_Update
 0008:021831C4       FieldPropSystem_DrawAllHandles
 0008:021831E4       FieldPropSystem_LoadArea
 0008:02183244       FieldPropSystem_FindResInfo
 0008:02183258       FieldPropSystem_GetResInfo
 0008:02183264       FieldPropSystem_CheckCreateDoorReq
 0008:021832A8       FieldPropSystem_InstantiateProps
 0008:02183330       FieldPropSystem_UnlinkChunk
 0008:02183338       FieldPropSystem_InstantiateFromInfo
 0008:0218337C       FieldPropSystem_DeleteHandle
 0008:021833A4       FieldPropSystem_RegistHandle
 0008:021833CC       FieldPropSystem_FindHandleByID
 0008:02183400       FieldPropSystem_GetHandleID
 0008:02183438       FieldPropSystem_GetResBank
 0008:02183440       FieldPropSystem_LoadResBundle
 0008:02183494       FieldPropSystem_FreeResBundle
 0008:021834A8       FieldPropSystem_BuildResIDLUT
 0008:021834FC       FieldPropSystem_ConvResIDToIndex
 0008:02183520       FieldPropResBundle_GetResInfo
 0008:0218352C       FieldPropResBundle_GetModelData
 0008:0218353C       FieldPropResAnmHeader_GetAnmData
 0008:02183548       FieldPropSystem_LoadTextures
 0008:02183578       FieldPropSystem_FreeTextures
 0008:02183598       FieldPropResAnmHeader_GetAnmCount
 0008:021835B8       FieldPropResInfo_GetAnmHeader
 0008:021835BC       FieldPropResInfo_GetTypeConv
 0008:021835F0       FieldPropRTCState_Init
 0008:02183600       FieldPropRTCState_Update
 0008:0218362C       FieldPropRTCState_HasDayPartChanged
 0008:02183630       FieldPropRTCState_GetPlayAnmIndex
 0008:02183634       FieldPropSystem_InitResources
 0008:021836A0       FieldPropSystem_FreeResources
 0008:021836E4       FieldPropSystem_InstantiateResources
 0008:02183790       FieldPropSystem_FreeResInstances
 0008:021837F4       FieldPropSystem_InitResource
 0008:02183890       FieldPropResource_Free
 0008:021838C0       FieldPropResInstance_Init
 0008:02183938       FieldPropAnmController_Static_Init
 0008:0218394C       FieldPropAnmController_Ambient_Init
 0008:02183998       FieldPropAnmController_RTC_Init
 0008:021839E4       FieldPropResInstance_Free
 0008:02183A30       FieldPropSystem_UpdateResInstance
 0008:02183A5C       FieldPropAnmController_Static_Update
 0008:02183A60       FieldPropAnmController_RTC_Update
 0008:02183AB0       FieldPropAnmController_Ambient_Update
 0008:02183AD0       FieldPropAnmController_Dynamic_Update
 0008:02183AF0       jpt_2183AEE
 0008:02183B3A       def_2183AEE
 0008:02183B44       addend
 0008:02183B48       FieldPropResInstance_AnmSetPlay
 0008:02183B9C       FieldPropResInstance_AnmSetPlayLoop
 0008:02183BF0       FieldPropResInstance_AnmSetPlayInv
 0008:02183C5C       FieldPropResInstance_AnmSetPause
 0008:02183C94       FieldPropResInstance_AnmStopAll
 0008:02183CBC       FieldPropResInstance_CallAnmCmd
 0008:02183CEC       FieldPropAnmController_Dynamic_ExecCommand
 0008:02183D02       jpt_2183D00
 0008:02183D40       def_2183D00
 0008:02183D44       FieldPropAnmController_Static_ExecCommand
 0008:02183D48       FieldPropResInstance_IsAnmIdle
 0008:02183D68       jpt_2183D66
 0008:02183D82       def_2183D66
 0008:02183D88       FieldChunkPropHolder_Release
 0008:02183D98       FieldPropSystem_LinkPropToChunk
 0008:02183DE8       FieldPropSystem_ReleaseChunkPropHolders
 0008:02183E14       FieldPropSystem_ReleaseChunkPropHolder
 0008:02183E2C       FieldChunkPropHolder_GetResIndex
 0008:02183E48       FieldChunkPropHolder_SetVisible
 0008:02183E70       FieldChunkPropHolder_ChangeResID
 0008:02183E80       FieldPropSystem_FindPropsInArea
 0008:02183F2C       FieldPropSystem_FindProp
 0008:02183F48       FieldPropSystem_FindPropAtPos
 0008:02183F68       FieldChunkPropHolder_GetPropType
 0008:02183F90       FieldChunkPropHolder_CallAnmCmd
 0008:02183FC4       FieldChunkPropHolder_GetPosAbs
 0008:02183FE8       FieldPropSystem_CreateHandleFromExisting
 0008:0218409C       FieldPropSystem_CreateHandleAtPos
 0008:021840B4       FieldPropSystem_CreateHandleNew
 0008:02184124       FieldPropHandle_Free
 0008:02184150       FieldPropHandle_CallAnmCmd
 0008:02184160       FieldPropHandle_CallAnmCmdSilent
 0008:02184174       FieldPropHandle_IsAnmFinished
 0008:02184198       FieldPropHandle_IsAnmIdle
 0008:021841AC       FieldPropHandle_IsCurrentAnmIdle
 0008:021841C0       FieldPropHandle_GetPropType
 0008:021841D0       FieldPropHandle_Draw
 0008:021841E0       FieldPropHandle_GetAnimSoundIDCore
 0008:0218422C       FieldPropHandle_GetAnimSoundID
 0008:02184240       FieldPropHandle_IsAnimSoundFinished
 0008:02184260       FieldPropSearchArea_Set
 0008:02184284       FieldG3DMapper_Create
 0008:021842F4       FieldG3DMapper_Free
 0008:02184328       FieldG3DMapper_UpdateSync
 0008:0218435E       jpt_218435C
 0008:02184374       def_218435C
 0008:021843E4       FieldG3DMapper_Update
 0008:0218441E       jpt_218441C
 0008:02184434       def_218441C
 0008:021844E4       FieldG3DMapper_CallAllLoaderUpdate
 0008:02184514       FieldG3D_RenderFieldmap
 0008:021845D4       FieldG3DMapper_CreateMap
 0008:0218474C       FieldG3DMapper_FreeMap
 0008:021847C8       FieldG3DMapper_LoadMapTextures
 0008:02184800       FieldG3DMapper_FreeMapTextures
 0008:0218481C       FieldG3DMapper_SetPlayerPos
 0008:0218482C       FieldG3DMapper_GetBasePosChunkHandleIdx
 0008:02184894       FieldG3DMapper_GenLocators0
 0008:021849C8       FieldG3DMapper_GenLocators1
 0008:02184B08       FieldG3DMapper_GenLocators2
 0008:02184C34       FieldG3DMapper_GenLocators3
 0008:02184E6C       FieldG3DMapper_UpdateChunkLoad
 0008:02185044       FieldG3DMapper_CalcChunkLoadAreaStart
 0008:0218507C       ClearMapTerrainBuf
 0008:0218508C       ClearMapTerrainSamplerOutput
 0008:021850AC       FieldG3DMapper_GetTerrainAll
 0008:021851B0       FieldG3DMapper_GetTerrain
 0008:02185298       FieldG3DMapper_CheckChunkHandleTerrainReady
 0008:021852C8       FieldG3DMapper_IsPosOutOfBounds
 0008:02185330       FieldG3DMapper_GetBMSystem
 0008:02185348       FieldG3DMapper_CreateTerrainAnimator
 0008:021853B8       FieldChunkContext_HasAnimator
 0008:021853C0       FieldChunkContext_GetSRTAnimatorState
 0008:021853C8       FieldChunkContext_GetPropSystem
 0008:021853CC       FieldChunkContext_GetResortMap
 0008:021853D0       FieldChunkContext_GetChunkIndex
 0008:021853D4       FieldChunkContext_GetHeapID
 0008:021853D8       FieldChunkContext_Init
 0008:02185400       FieldChunkContext_FreeAnimator
 0008:02185424       FieldChunkContext_HasAnimatorCore
 0008:02185434       FieldChunkContext_GetSRTAnimatorStateCore
 0008:02185438       FieldChunkLocator_Disable
 0008:02185448       FieldChunkLocator_SetChunkID
 0008:0218544C       FieldChunkLocator_IsActive
 0008:02185460       FieldChunkLocator_GetChunkID
 0008:02185464       FieldChunkLocator_SetPos
 0008:0218546C       FieldChunkLocator_GetPos
 0008:02185540       FieldG3DMapper_ResetDrawCalcState
 0008:021855C4       FieldG3DMapper_AddDrawableChunk
 0008:02185648       FieldG3DMapper_CalcRenderPassSplit
 0008:021856A8       FieldG3DMapper_CheckChunkDraw
 0008:021856E0       FieldCamera_Create
 0008:021857AC       FieldCamera_Free
 0008:021857CC       FieldCamera_CalcTransform
 0008:021857EC       FieldCamera_SetTransformType
 0008:02185800       FieldCamera_GetTransformType
 0008:02185804       FieldCamera_ChangeTransformType
 0008:02185828       FieldCamera_LoadDefaults
 0008:02185844       FieldCamera_SetDefaultsIndex
 0008:02185850       FieldCamera_GetDefaultsIndex
 0008:02185854       FieldCamera_CoordsLoadDefaults
 0008:02185928       FieldCamera_ReadDefaults
 0008:0218594C       FieldCameraApply_SetInitTgtBase
 0008:02185960       FieldCameraApply_SetInitEyeBase
 0008:0218597C       FieldCameraApply_TransRot
 0008:02185A20       FieldCameraApply_MakeEyeByTarget
 0008:02185ACC       FieldCameraApply_MakeTargetByEye
 0008:02185B78       FieldCameraApply_SetAllInit
 0008:02185C08       FieldCameraApply_FinishLookAtMatrix
 0008:02185C54       FieldCamera_CallTransformCalcFunc
 0008:02185C68       FieldCameraTransform_TARGET_REL
 0008:02185C80       FieldCameraTransform_CAMERA_REL
 0008:02185C98       FieldCameraTransform_FIXED_ALL
 0008:02185CB4       FieldCameraTransform_TARGET_REL_Init
 0008:02185CBC       FieldCameraTransform_CAMERA_REL_Init
 0008:02185CC4       FieldCameraTransform_FIXED_ALL_Init
 0008:02185CD8       FieldCamera_CoordsDerive_
 0008:02185D3C       FieldCamera_CoordsSetFromDir
 0008:02185D6C       FieldCameraTransform_TARGET_REL_ConvertTo
 0008:02185DB8       FieldCameraTransform_CAMERA_REL_ConvertTo
 0008:02185E04       FieldCameraTransform_FIXED_ALL_ConvertTo
 0008:021862F4       FieldCamera_GetG3DCamera
 0008:021862F8       FieldCamera_SetBind
 0008:0218631C       FieldCamera_ClearBind
 0008:02186324       FieldCamera_GetBind
 0008:02186328       FieldCamera_ResetBind
 0008:02186330       FieldCamera_SetRefBind
 0008:02186334       FieldCamera_GetRefBind
 0008:02186338       FieldCamera_SetZNear
 0008:0218634C       FieldCamera_SetZFar
 0008:02186360       FieldCamera_CoordsSetTarget
 0008:02186384       FieldCamera_CoordsGetTarget
 0008:02186394       FieldCamera_CoordsGetTargetOffset
 0008:021863A4       FieldCamera_CoordsSetTargetOffset
 0008:021863B4       FieldCamera_CoordsGetEye
 0008:021863C4       FieldCamera_CoordsSetEye
 0008:021863D4       FieldCamera_CoordsGetEyeOffset
 0008:021863E4       FieldCamera_CoordsSetEyeOffset
 0008:021863F4       FieldCamera_CoordsGetPitch
 0008:021863FC       FieldCamera_CoordsSetPitch
 0008:02186408       FieldCamera_CoordsGetYaw
 0008:02186410       FieldCamera_CoordsSetYaw
 0008:0218641C       FieldCamera_CoordsGetZoom
 0008:02186420       FieldCamera_CoordsSetZoom
 0008:02186424       FieldCamera_CoordsDerive
 0008:0218642C       FieldCamera_SetFOV
 0008:02186464       FieldCameraDelay_Update
 0008:021865C4       FieldCameraDelay_Create
 0008:0218669C       FieldCamera_FreeDelayManager
 0008:021866CC       FieldCamera_ApplyDelay
 0008:02186718       FieldCameraDelay_Disable
 0008:02186724       FieldCamera_EnableDelay
 0008:02186770       FieldCamera_FinishDelay
 0008:0218679C       FieldCamera_DisableDelay
 0008:021867B0       FieldCamera_IsDelayActive
 0008:021867C0       FieldCamera_SupportsDelay
 0008:021867DC       FieldCameraBoundary_LoadFile
 0008:021867FC       FieldCameraBoundary_LoadDummy
 0008:02186814       FieldCameraBoundary_ChangeID
 0008:02186854       FieldCamera_GetTarget
 0008:02186864       FieldCamera_GetEye
 0008:02186874       FieldCamera_SetUseBoundaryEnable
 0008:0218687C       FieldCamera_IsUseBoundaryEnable
 0008:02186884       FieldCameraBoundary_ApplyTarget
 0008:021868A4       FieldCameraBoundary_ApplyEye
 0008:021868C4       FieldCameraBoundary_RestrictRect
 0008:021869D8       FieldCameraBoundary_RestrictCircle
 0008:02186B28       FieldCameraBoundary_RepealRect
 0008:02186D96       jpt_2186D94
 0008:02186E42       def_2186D94
 0008:02186E48       FieldCamera_BackupCoords
 0008:02186E98       FieldCamera_BackupCoordsRealTime
 0008:02186EE0       FieldCamera_EVCameraInit
 0008:02186F10       FieldCameraAnm_EnsureInitDone
 0008:02186F40       FieldCameraAnm_EVCameraEnd
 0008:02186F64       FieldCameraAnm_SetAnimationCore
 0008:02186FC8       FieldCameraAnm_SetAnimation
 0008:02186FE0       FieldCameraAnm_SetAnimationRealTime
 0008:02186FF8       FieldCameraAnm_SetReturnAnimation
 0008:02187074       FieldCameraAnm_SetLoadDefaultsAnimation
 0008:02187150       FieldCameraCalc_EvCamera
 0008:021872B4       FieldCameraCalc_LerpVector
 0008:02187300       FieldCameraCalc_LerpScalar
 0008:0218731C       FieldCameraCalc_LerpAngle
 0008:0218736C       FieldCamera_ClearAnimatorFunc
 0008:0218737C       FieldCamera_IsAnimating
 0008:0218739C       FieldCamera_GetAnimationCoords
 0008:021873A4       Field_CreateCameraAnimationController
 0008:021873BC       FieldCameraAnimationController_FreeAnimation
 0008:021873C4       FieldCameraAnimationController_SetAnimation
 0008:021873C8       FieldCameraAnimationController_PrepareCamera
 0008:021873E4       FieldCameraAnimationController_CommitSrcCoords
 0008:02187424       FieldCameraAnimationController_StartAnimation
 0008:02187444       FieldCameraAnimationController_FinishCamera
 0008:02187454       FieldCameraAnimationController_Create
 0008:0218746C       FieldCameraAnimation_Free
 0008:02187474       FieldCameraAnimationController_SetField
 0008:0218749C       FieldCameraAnimationController_SetupCameraBind
 0008:0218750C       FieldCameraAnimationController_AdjustTransform
 0008:02187524       FieldCameraAnimationController_ResetCameraBind
 0008:0218757C       FieldCamera_CoordsRestoreFromLookAt
 0008:021875CC       FieldCamera_CoordsRestoreZoom
 0008:021875E8       FieldCamera_GetAnimationCoords_
 0008:02187634       FieldCameraAnimationController_CommitDstCoords
 0008:02187670       FieldCameraAnimationController_SetupTasks
 0008:02187708       FieldCameraAnimationEx_GetFieldCamera
 0008:0218770C       FieldCameraAnimationController_GetAnimation
 0008:02187710       CreateFieldMsgBGSystem
 0008:02187BB0       MoneyWin_Create
 0008:02187C3C       FieldMsgBG_CreateMoneyWin
 0008:02187D84       ListMenuUI_CreateCore
 0008:02187EAC       ListMenuUI_Create
 0008:02187F08       ListMenuUI_Update
 0008:02187F44       InitListMenuOptionHeap
 0008:02187F88       AppendListMenuOption
 0008:02187FE8       ListMenuCore_GetOptionCount
 0008:02187FF0       CalcListMenuWidth
 0008:02188010       CalcListMenuHeight
 0008:02188034       ListMenuRequest_Set
 0008:02188058       BmpMenuListSetup_Init
 0008:02188238       a11
 0008:021886F4       ActorMsgWin_Create
 0008:021887D8       ActorMsgWin_CheckAndCreate
 0008:02188D6C       CalcMsgWindowDimensions
 0008:0218A5BC       setAlphaBlend
 0008:0218A5D8       setAlphaBlend_wrapper
 0008:0218A638       FieldMsgBG_CreateBmpWin
 0008:0218A6E8       loadPltt
 0008:0218A838       FieldChunkAccessor_WB_Update
 0008:0218A910       FieldChunkAccessor_WB_GetTerrain
 0008:0218A938       FieldChunkAccessor_GC_Update
 0008:0218AA10       FieldChunkAccessor_GC_GetTerrain
 0008:0218AA70       FieldChunkAccessor_GC_GetTerrainBaseLayer
 0008:0218AABC       FieldChunkAccessor_NG_Update
 0008:0218AB94       FieldChunkAccessor_NG_GetTerrain
 0008:0218ABA0       FieldChunkAccessor_RD_Update
 0008:0218ABCC       jpt_218ABCA
 0008:0218ACCA       def_218ABCA
 0008:0218ACD0       FieldChunkAccessor_RD_GetTerrain
 0008:0218AE3C       nullsub_16
 0008:0218AE40       nullsub_24
 0008:0218AE78       FldCommActSys_Create
 0008:0218AEBC       FldCommActSys_Free
 0008:0218AEF4       FldCommActSys_CreateActor
 0008:0218AF48       FldCommActSys_DeleteActor
 0008:0218AF78       FldCommActSys_FindActor
 0008:0218AFE0       FieldCommActor_Reset
 0008:0218AFFC       FieldCommActor_Add
 0008:0218B168       nullsub_110
 0008:0218B16C       EventFieldMenuReturn_Create
 0008:0218B1A8       EventFieldMenuReturn_Callback
 0008:0218B2CC       loadTexture_wrapper
 0008:0218B328       nullsub_17
 0008:0218B410       ActorMsgWin_CreateAtTop
 0008:0218B450       ActorMsgWin_CreateAtBottom
 0008:0218B494       ActorMsgWin_CreateAtAutoPos
 0008:0218B690       ActorMsgWin_CreateCore
 0008:0218B8C4       jpt_218B8C2
 0008:0218B8E0       def_218B8C2
 0008:0218C0F8       loadTexture
 0008:0218D860       a3
 0008:0218D9E4       nullsub_111
 0008:0218DC2C       nullsub_112
 0008:0218DC98       nullsub_113
 0008:0218DE28       nullsub_114
 0008:0218DFD4       nullsub_115
 0008:0218E5A8       nullsub_116
 0008:0218EDD8       CopyActorPosAllAdd
 0008:0218EE9C       FieldAcmdTCB_Create
 0008:0218EF04       FieldAcmdTCB_CheckEnded
 0008:0218EF10       FieldAcmdTCB_Remove
 0008:0218EF38       FieldAcmdTCB_Callback
 0008:0218EF54       FieldAcmdTCB_Begin
 0008:0218EF60       FieldAcmdTCB_WaitAcmdReady
 0008:0218EF7C       FieldAcmdTCB_CommitAcmd
 0008:0218EF94       FieldAcmdTCB_CheckSeqPerms
 0008:0218EFB0       FieldAcmdTCB_AdvanceQueue
 0008:0218EFF8       FieldAcmdTCB_End
 0008:0218EFFC       GetAcmdForDir
 0008:0218F0A0       FldAct_ExecAcmd
 0008:0218F6CC       soundId
 0008:0219141C       nullsub_117
 0008:02192610       ExecActorEvTypeFunction
 0008:021926CC       nullsub_118
 0008:02192AE8       nullsub_119
 0008:02192D40       nullsub_120
 0008:02192DAC       FindPairedTrainerActor
 0008:021936C0       BlActSys_LoadSingleUseTexMaterial
 0008:02193768       FldActSys_InitBlAct
 0008:02193810       FldActSys_UpdateResourceLoader
 0008:02193838       FldActSys_FinishAsyncMatLoad
 0008:02193844       FldActSys_IsAsyncLoadPending
 0008:0219386C       FldActSys_LoadStaticBlact
 0008:02193894       FldActSys_LoadCachedBlact
 0008:021938CC       FldActSys_AddBlActDefault
 0008:021938E4       FldActSys_AddBlAct
 0008:02193978       FldAct_InitBlActWithMat
 0008:02193A18       FldAct_InitBlActExistMat
 0008:02193AAC       FieldBlAct_UnbindActorObjCode
 0008:02193C0C       FieldBlAct_GetBlActSys
 0008:02193C30       FldBlAct_CreateMatCache
 0008:02193C70       FldBlAct_RegistCachedMat
 0008:02193D08       FldBlAct_InitMatCache
 0008:02193E04       FieldBlAct_FindCachedObjMat
 0008:02193E10       FldBlAct_InitLoader
 0008:02193F20       FieldBlAct_IsAsyncLoadPending
 0008:02193F98       FldBlAct_ReqAsyncLoad
 0008:02193FDC       FldBlAct_UpdateAsyncRead
 0008:02194090       FldBlAct_ExecAsyncRead
 0008:021940DC       FieldBlAct_FinishAsyncMatLoad
 0008:02194130       FldBlAct_CheckAsyncLoading
 0008:021941E0       FldAct_InitBlActNewMat
 0008:02194324       FldBlAct_UpdateAsyncActorSetup
 0008:02194438       FldAct_SwapObjCode
 0008:021944FC       FldBlAct_InitUnloader
 0008:0219463C       FldBlAct_UpdateAsyncDelete
 0008:021946F4       FieldActorG3DSystem_Create
 0008:02194748       FldAct_GetG3DObjSystem
 0008:021947D0       FieldActorG3DSystem_RegistObj
 0008:02194830       FldActSys_SetupG3DObj
 0008:02194E2C       nullsub_61
 0008:02194F18       FldAct_GetFieldEffects
 0008:021955D0       SetActorInitedPositionRail
 0008:02195604       GetActorRailPos
 0008:02195658       FldAct_GetRailUnit
 0008:02195880       FindActorByRailPos
 0008:02195998       GetActorRailPosForDir
 0008:02195E0C       SetActorPositionRailCoordinates
 0008:02196248       RailDataHandle_Reset
 0008:02196278       FieldRailLoader_Create
 0008:021962A0       FieldRailLoader_Free
 0008:021962B0       FieldRailLoader_LoadFile
 0008:02196330       FieldRailLoader_Reset
 0008:0219634C       FieldRailLoader_GetRailData
 0008:02196350       CreatePlayerXActorScriptCall
 0008:0219637C       nullsub_121
 0008:02196380       nullsub_122
 0008:02196384       nullsub_123
 0008:02196388       nullsub_124
 0008:02196958       TransformVecByCamera
 0008:02196EA0       FldAct_SyncLights
 0008:02197574       FieldFog_Create
 0008:021975A8       FieldFog_Free
 0008:021975B0       FieldFog_Update
 0008:021975E0       FieldFog_Flush
 0008:02197614       FieldFog_SetEnabled
 0008:0219761C       FieldFog_SetAlphaMode
 0008:02197624       FieldFog_SetDepthShift
 0008:0219762C       FieldFog_SetOffset
 0008:02197634       FieldFog_SetColor
 0008:0219763C       FieldFog_SetAlpha
 0008:02197644       FieldFog_SetTable
 0008:0219765C       FieldFog_IsEnabled
 0008:02197660       FieldFog_GetDepthShift
 0008:02197664       FieldFog_SetDefaultTable
 0008:02197688       FieldFog_Animate
 0008:021976B0       FieldFog_AnimateEx
 0008:021976D0       FieldFog_IsAnimationRunning
 0008:021976DC       FieldFogAnimation_IsRunning
 0008:021976EC       FieldFogAnimation_Set
 0008:0219770C       FieldFogAnimation_Step
 0008:0219771C       FieldFogAnimation_CalcFogOffset
 0008:02197734       FieldFogAnimation_CalcFogDepthShift
 0008:02197750       FieldFogCtrl_Create
 0008:02197780       FieldFogCtrl_Free
 0008:02197798       FieldFogCtrl_Update
 0008:021977C4       FieldFogCtrl_RequestLoad
 0008:021977E8       FieldFogCtrl_Reset
 0008:02197810       FieldFogCtrl_CheckArc
 0008:02197820       FieldFogCtrl_IsStaticLightExists
 0008:02197834       FieldFogCtrl_GetFogParam0
 0008:02197848       FieldFogCtrl_GetFogParam1
 0008:0219785C       FieldFogCtrl_GetStaticLightIndex
 0008:02197860       FieldLight_Create
 0008:021978D8       FieldLight_Free
 0008:021978E8       FieldLight_Update
 0008:021979F8       FieldLight_Flush
 0008:02197A20       FieldLight_ChangeData
 0008:02197A68       FieldLight_ChangeDataDefault
 0008:02197AA8       FieldLight_StartFlash
 0008:02197ACC       FieldLight_StartFlashOneWay
 0008:02197AEC       FieldLight_IsFlashRunning
 0008:02197AFC       FieldLight_FlushCore
 0008:02197BC4       FieldLight_LoadData
 0008:02197BD8       FieldLight_LoadDataCore
 0008:02197C40       nullsub_23
 0008:02197C44       FieldLight_GetUsedEntryIndex
 0008:02197C88       FieldLight_GetLightEndSecond
 0008:02197CA8       FieldLightColorInterpolator_Set
 0008:02197CF0       FieldLightColorInterpolator_Calc
 0008:02197D5C       FieldLightDirInterpolator_Set
 0008:02197DA8       FieldLightDirInterpolator_Calc
 0008:02197E04       FieldLightInterpolator_BeginDefault
 0008:02197E10       FieldLightInterpolator_Begin
 0008:02197EE0       FieldLightInterpolator_BeginToConstColor
 0008:02197FA4       FieldLightInterpolator_Update
 0008:02197FC4       FieldLightInterpolator_IsRunning
 0008:02197FDC       FieldLightInterpolator_Apply
 0008:021980E0       FieldLightFlashInfo_Set
 0008:021980F0       FieldLightFlashInfo_SetOneWay
 0008:02198104       FieldLight_UpdateFlash
 0008:02198120       jpt_219811E
 0008:0219816C       def_219811E
 0008:02198174       FieldLightFlashInfo_IsRunning
 0008:02198184       FieldColorPostFX_Set
 0008:0219818C       FieldColorPostFX_Apply
 0008:021981D8       FieldSubscreen_Create
 0008:0219822C       FieldSubscreen_Free
 0008:02198270       FieldSubscreen_Update
 0008:02198288       jpt_2198286
 0008:0219834E       def_2198286
 0008:02198360       FieldSubscreen_UpdateAltFrame
 0008:02198376       jpt_2198374
 0008:021983B0       def_2198374
 0008:021983B8       FieldSubscreen_CheckGameEvents
 0008:021983DC       FieldSubscreen_IsReady
 0008:021983EC       FieldSubscreen_GetOverrideScreen
 0008:02198450       FieldSubscreen_GetIDForChange
 0008:021984AC       FieldSubscreen_ReqChange
 0008:021984BC       FieldSubscreen_ChangeImm
 0008:021984F8       FieldSubscreen_ReqChangeEx
 0008:0219850C       FieldSubscreen_GetScreenID
 0008:02198510       FieldSubscreen_GetReturnSubscreen
 0008:0219851C       FieldSubscreen_SaveReturnSubscreen
 0008:02198564       FieldSubscreen_CGear_Init
 0008:021985CC       FieldSubscreen_CGear_InitPowerOn
 0008:0219863C       FieldSubscreen_CGear_Terminate
 0008:0219865C       FieldSubscreen_CGear_Update
 0008:021986B4       FieldSubscreen_CGear_CheckEvent
 0008:02198AAC       FieldSubscreen_Dowsing_Init
 0008:02198ACC       FieldSubscreen_Dowsing_Terminate
 0008:02198AE0       FieldSubscreen_Dowsing_Update
 0008:02198AEC       FieldSubscreen_Dowsing_UpdateAltFrame
 0008:02199160       FieldWeather_Update
 0008:021991A4       FieldWeather_Draw
 0008:021991E0       SetWeatherInit
 0008:021992EC       jpt_21992EA
 0008:0219935E       def_21992EA
 0008:021994B0       jpt_21994AE
 0008:02199656       def_21994AE
 0008:0219A398       fogOffsetSrc
 0008:0219A3F4       FieldmapCtrlGrid_Create
 0008:0219A450       FieldmapCtrlGrid_Free
 0008:0219A45C       FieldmapCtrlGrid_Update
 0008:0219A4A0       FieldmapCtrlGrid_GetPos
 0008:0219A4B0       FieldmapCtrlGrid_SetUpdateDisable
 0008:0219A4BC       FieldPlayer_Create
 0008:0219A4FC       FieldPlayer_Free
 0008:0219A524       FieldPlayer_SyncState
 0008:0219A58C       FieldPlayer_CheckObjContactEvent
 0008:0219A5B4       FieldPlayer_SetSpecialSeq
 0008:0219A5D8       FieldPlayer_ForceBrake
 0008:0219A610       FieldPlayer_GetMoveDirByKey
 0008:0219A650       FieldPlayer_UpdateActionStatusObserver
 0008:0219A6A4       FieldPlayer_GetWPos
 0008:0219A6B0       FieldPlayer_SetWPos
 0008:0219A6BC       FieldPlayer_GetFaceDir
 0008:0219A6C8       FieldPlayer_SetDirection
 0008:0219A6D4       FieldPlayer_GetField
 0008:0219A6E0       FieldPlayer_GetActor
 0008:0219A6EC       FieldPlayer_GetMoveStatus
 0008:0219A6F8       FieldPlayer_GetMoveObserveStatus
 0008:0219A704       FieldPlayer_GetExState
 0008:0219A710       FieldPlayer_SetSpecialState
 0008:0219A728       FieldPlayer_GetGameSystem
 0008:0219A734       FieldPlayer_GetTileTypeUnder
 0008:0219A740       FieldPlayer_GetTileTypeInDir
 0008:0219A74C       FieldPlayer_GetTileTypeInDirEx
 0008:0219A7FC       FieldPlayer_GetObjCodeByForme
 0008:0219A810       FieldPlayer_GetObjCodeByExState
 0008:0219A83C       FieldPlayer_GetExStateByObjCode
 0008:0219A88C       FieldPlayer_ForceObjCode
 0008:0219A898       FieldPlayer_ClearObjCode
 0008:0219A8BC       FieldPlayer_GetActorInFront
 0008:0219A914       FieldPlayer_GetActorInFrontEx
 0008:0219A978       GetPlayerGPosPlusDir
 0008:0219A9D0       FieldPlayer_GetWPosInDir
 0008:0219AACC       FieldPlayer_GetGPosInFront
 0008:0219AB58       FieldPlayer_DeriveExState
 0008:0219AB70       CheckSurfHeightAllow
 0008:0219ABD0       CheckCanInteractWaterfall
 0008:0219ABFC       FieldPlayer_InterruptCatwalkBalance
 0008:0219AC30       FieldPlayer_GetVerticalMoveOnlyFlag
 0008:0219AC64       FieldPlayer_CheckRunningShoesFlag
 0008:0219AC88       FieldPlayer_InitGrid
 0008:0219AC98       FieldPlayer_UpdateGridMovement
 0008:0219ACA4       FieldPlayer_GetGPos
 0008:0219AD1C       FieldPlayer_UpdateRailMovement
 0008:0219AD58       FieldPlayer_SetRailPos
 0008:0219AD7C       FieldPlayer_GetRailWorldPos
 0008:0219AD8C       FieldPlayerCore_Create
 0008:0219AEB8       FieldPlayerCore_Free
 0008:0219AEC0       FieldPlayerCore_UpdateActionStatusObserver
 0008:0219AF40       FieldPlayerCore_GetWPos
 0008:0219AF4C       FieldPlayerCore_SetWPos
 0008:0219AFC8       FieldPlayerCore_GetFaceDir
 0008:0219AFD4       FieldPlayerCore_SetDirection
 0008:0219AFE0       FieldPlayerCore_ForceObjCode
 0008:0219AFF4       FieldPlayerCore_ClearObjCode
 0008:0219AFFC       objCode
 0008:0219B004       FieldPlayerCore_GetField
 0008:0219B008       FieldPlayerCore_GetActor
 0008:0219B00C       FieldPlayerCore_SetMoveStatus
 0008:0219B010       FieldPlayerCore_GetMoveStatus
 0008:0219B014       FieldPlayerCore_ForceMoveObserveStatus
 0008:0219B01C       FieldPlayerCore_GetExState
 0008:0219B028       FieldPlayerCore_SetExState
 0008:0219B034       FieldPlayerCore_GetSex
 0008:0219B038       FieldPlayerCore_GetGameSystem
 0008:0219B03C       FieldPlayerCore_GetPlayerState
 0008:0219B040       FieldPlayerCore_InitModel
 0008:0219B0B8       FieldPlayerCore_DeriveExState
 0008:0219B148       FieldPlayerCore_IsAcmdFinished
 0008:0219B160       FieldPlayerCore_GetMoveDirByKey
 0008:0219B16C       FieldPlayerCore_CalcSeparateKeyDirs
 0008:0219B17C       FieldPlayerCore_GetTerrainEffectTCB
 0008:0219B180       FieldPlayerCore_ChangeObjCode
 0008:0219B1E4       FieldPlayerCore_InitModelCore
 0008:0219B220       FieldPlayerCore_IsBaseFormeObjCode
 0008:0219B25C       FieldPlayerCore_GetMoveDirByKey_
 0008:0219B2CC       FieldPlayerCore_CalcSeparateKeyDirs_
 0008:0219B2E4       GetMoveDirHByKey
 0008:0219B2FC       GetMoveDirVByKey
 0008:0219B358       FieldPlayerCore_SetSpecialSeq
 0008:0219B3B0       FieldPlayerCore_CheckSpecialObjCode
 0008:0219B448       FieldPlayerCore_ExStateChangeFunc_NONE
 0008:0219B4BC       FieldPlayerCore_ExStateChangeFunc_CYCLING
 0008:0219B4FC       FieldPlayerCore_ExStateChangeFunc_SURF
 0008:0219B690       FieldPlayerCore_ExStateChangeFunc_DIVE
 0008:0219B7BC       FieldPlayerCore_ReqSyncBGM
 0008:0219B7E8       FieldPlayerCore_InitGridCtl
 0008:0219B854       FieldPlayerGrid_UpdateMovement
 0008:0219B8C8       FieldPlayerGrid_SetCommonStatus
 0008:0219B8F8       FieldPlayerGrid_CheckAllowUpdate
 0008:0219B930       FieldPlayerGrid_PlaySFXByTile
 0008:0219BA7C       FieldPlayerGrid_UpdateTileSFX
 0008:0219BAE8       FieldPlayerGrid_DecideCommand
 0008:0219BB06       jpt_219BB04
 0008:0219BB2A       def_219BB04
 0008:0219BB30       FieldPlayerGrid_GetMoveDirContType
 0008:0219BB60       FieldPlayerGrid_IsAcmdFinished
 0008:0219BB6C       FieldPlayerGrid_DecideCommandNormal
 0008:0219BBAC       jpt_219BBAA
 0008:0219BBE4       def_219BBAA
 0008:0219BBE8       FieldPlayerGrid_DecideCommandNormalIdle
 0008:0219BC3C       FieldPlayerGrid_DecideCommandNormalMoving
 0008:0219BD08       FieldPlayerGrid_DecideCommandNormalTurning
 0008:0219BD3C       FieldPlayerGrid_DecideCommandNormalBraking
 0008:0219BD94       FieldPlayerGrid_DecideCommandCatwalk
 0008:0219BDB6       jpt_219BDB4
 0008:0219BE0A       def_219BDB4
 0008:0219BE0C       FieldPlayerGrid_DecideCommandCatwalkIdle
 0008:0219BE58       FieldPlayerGrid_DecideCommandCatwalkMove
 0008:0219BED0       FieldPlayerGrid_DecideCommandCatwalkBalance
 0008:0219BF34       FieldPlayerGrid_DecideCommandCatwalkExit
 0008:0219BF48       FieldPlayerGrid_DecideCommandFall
 0008:0219BF6C       FieldPlayerGrid_DecideCommandBike
 0008:0219BF8E       jpt_219BF8C
 0008:0219BFBC       def_219BF8C
 0008:0219C004       MapTile_IsBlocksCycling2
 0008:0219C1AC       FieldPlayerGrid_DecideCommandSurf
 0008:0219C1CE       jpt_219C1CC
 0008:0219C1FC       def_219C1CC
 0008:0219C354       FieldPlayerGrid_UpdateCore
 0008:0219C372       jpt_219C370
 0008:0219C39C       def_219C370
 0008:0219C3A0       FieldPlayerGrid_UpdateNormal
 0008:0219C3C0       jpt_219C3BE
 0008:0219C436       def_219C3BE
 0008:0219C438       FieldPlayerGrid_UpdateNormalBusy
 0008:0219C43C       FieldPlayerGrid_UpdateNormalIdle
 0008:0219C46C       FieldPlayerGrid_UpdateNormalMove
 0008:0219C4E0       FieldPlayerGrid_UpdateNormalTurn
 0008:0219C504       FieldPlayerGrid_UpdateNormalBrake
 0008:0219C540       FieldPlayerGrid_UpdateNormalJump
 0008:0219C56C       FieldPlayerGrid_UpdateNormalCatwalkBalance
 0008:0219C574       FieldPlayerGrid_UpdateNormalCatwalkExit
 0008:0219C5B8       FieldPlayerGrid_UpdateNormalCatwalkExitWait
 0008:0219C5C0       FieldPlayerGrid_UpdateNormalFall
 0008:0219C610       FieldPlayerGrid_UpdateBike
 0008:0219C630       jpt_219C62E
 0008:0219C676       def_219C62E
 0008:0219C678       FieldPlayerGrid_UpdateBikeBusy
 0008:0219C67C       FieldPlayerGrid_UpdateBikeIdle
 0008:0219C6AC       FieldPlayerGrid_UpdateBikeMove
 0008:0219C724       FieldPlayerGrid_UpdateBikeTurn
 0008:0219C748       FieldPlayerGrid_UpdateBikeBrake
 0008:0219C784       FieldPlayerGrid_UpdateBikeJump
 0008:0219C7B0       FieldPlayerGrid_UpdateSurf
 0008:0219C7D0       jpt_219C7CE
 0008:0219C80A       def_219C7CE
 0008:0219C80C       FieldPlayerGrid_UpdateSurfBusy
 0008:0219C810       FieldPlayerGrid_UpdateSurfIdle
 0008:0219C840       FieldPlayerGrid_UpdateSurfMove
 0008:0219C86C       FieldPlayerGrid_UpdateSurfTurn
 0008:0219C890       FieldPlayerGrid_UpdateSurfBrake
 0008:0219C8CC       PlayerMoveCollCheck
 0008:0219C96C       FieldPlayerGrid_SetFlag
 0008:0219C974       FieldPlayerGrid_ClearFlag
 0008:0219C980       FieldPlayerGrid_CheckFlag
 0008:0219C990       FieldPlayerGrid_SetConstMoveFlag
 0008:0219C99C       FieldPlayerGrid_ClearConstMoveFlag
 0008:0219C9A8       FieldPlayerGrid_CheckConstMoveFlag
 0008:0219C9BC       FieldPlayerGrid_SetConstMoveEndSpotFlag
 0008:0219C9C8       FieldPlayerGrid_ClearConstMoveEndSpotFlag
 0008:0219C9E0       FieldPlayerGrid_SetCatwalkBalancingFlag
 0008:0219C9F8       FieldPlayerGrid_CheckCatwalkBalancingFlag
 0008:0219CA0C       FieldPlayerGrid_SetCatwalkExitingFlag
 0008:0219CA24       FieldPlayerGrid_CheckCatwalkExitingFlag
 0008:0219CA38       FieldPlayerGrid_ForceBrake
 0008:0219CA86       jpt_219CA84
 0008:0219CABC       def_219CA84
 0008:0219CAC0       FieldPlayerGrid_GetConstMoveType
 0008:0219CAF4       FieldPlayerGrid_IsConstMoving
 0008:0219CB08       FieldPlayerGrid_IsCatwalkExiting
 0008:0219CB1C       FieldPlayerGrid_SanitizeHeightMismatch
 0008:0219CB74       FieldPlayerGrid_ClearConstMove
 0008:0219CB94       FieldPlayerGrid_ConstMoveUpdate_NONE
 0008:0219CBA0       FieldPlayerGrid_ConstMoveUpdate_STRAIGHT
 0008:0219CC10       FieldPlayerGrid_ConstMoveUpdate
 0008:0219CC44       MapTile_IsCatwalk
 0008:0219CC64       MapTile_IsCatwalkBody
 0008:0219CC78       FieldPlayerGrid_CheckOnCatwalk
 0008:0219CC98       FieldPlayerGrid_CalcCatwalkFallDir
 0008:0219CD04       PlayerMoveCollCheckCatwalk
 0008:0219CD28       FieldPlayerGrid_CheckModelHeightMismatch
 0008:0219CD5C       FieldPlayerGrid_BeginCatwalkBalance
 0008:0219CD70       FieldPlayerGrid_ResetCatwalkBalance
 0008:0219CD90       FieldPlayerGrid_GetPlayerCore
 0008:0219CD94       FieldPlayerGrid_GetPlayerActor
 0008:0219CDA0       FieldPlayerGrid_InterruptCatwalkBalance
 0008:0219CDCC       FieldPlayerGrid_GetVerticalMoveOnlyFlag
 0008:0219CDE8       FieldPlayerGrid_GetTileInDir
 0008:0219CE20       FieldPlayerGrid_CompareHeightChange
 0008:0219CE70       FieldPlayerGrid_CheckWarpAtHitWall
 0008:0219CFCC       FieldPlayerRail_UpdateMovement
 0008:0219D06C       FieldPlayerRail_SetRailPos
 0008:0219D078       FieldPlayerCore_GetRailPos
 0008:0219D090       FieldPlayerRail_GetWorldPos
 0008:0219D0F6       jpt_219D0F4
 0008:0219D13A       def_219D0F4
 0008:0219D162       jpt_219D160
 0008:0219D1B4       def_219D160
 0008:0219D22C       FieldPlayerRail_CheckAllowUpdate
 0008:0219D28C       jpt_219D28A
 0008:0219D2E8       def_219D28A
 0008:0219D550       nullsub_128
 0008:0219D664       jpt_219D662
 0008:0219D6C0       def_219D662
 0008:0219D928       nullsub_129
 0008:0219DA36       jpt_219DA34
 0008:0219DA96       def_219DA34
 0008:0219DA9C       nullsub_130
 0008:0219E368       FieldmapCtrlNoGrid_Create
 0008:0219E3E0       FieldmapCtrlNoGrid_Free
 0008:0219E3EC       FieldmapCtrlNoGrid_Update
 0008:0219E3F8       FieldmapCtrlNoGrid_GetPos
 0008:0219E470       FieldmapCtrlHybrid_GetActiveTypeID
 0008:0219E4E0       FieldmapCtrlHybrid_Create
 0008:0219E5C8       FieldmapCtrlHybrid_Free
 0008:0219E5D4       FieldmapCtrlHybrid_Update
 0008:0219E5FC       FieldmapCtrlHybrid_GetPos
 0008:0219EA10       FieldTerrainAnimator_Create
 0008:0219EA70       FieldTerrainAnimator_Free
 0008:0219EA8C       FieldTerrainAnimator_Update
 0008:0219EAB4       FieldTerrainAnimator_GetChunkState
 0008:0219EAC0       FieldTerrainSRTAnimatorChunkState_Bind
 0008:0219EAC8       FieldTerrainSRTAnimatorChunkState_ClearUsedFlag
 0008:0219EAD0       FieldTerrainAnimator_LoadSRT
 0008:0219EB34       FieldTerrainSRTAnimator_Free
 0008:0219EB70       FieldTerrainSRTAnimator_Update
 0008:0219EBA4       FieldTerrainSRTAnimator_GetChunkState
 0008:0219EBB8       FieldTerrainSRTAnimatorChunkState_Init
 0008:0219EBDC       FieldTerrainSRTAnimatorChunkState_Free
 0008:0219EBEC       FieldTerrainSRTAnimatorChunkState_BindCore
 0008:0219EC60       FieldTerrainSRTAnimatorChunkState_ClearUsedFlagCore
 0008:0219EC6C       FieldTerrainSRTAnimatorChunkState_SetFrame
 0008:0219EC8C       FieldTerrainAnimator_LoadTexPat
 0008:0219ECD0       FieldTerrainTexPatAnimator_Free
 0008:0219ED04       FieldTerrainTexPatAnimator_Update
 0008:0219ED28       FieldTerrainTexPatAnimation_Init
 0008:0219EE98       FieldTerrainTexPatAnimation_Free
 0008:0219EEC8       FieldTerrainTexPatAnimation_Update
 0008:0219EF8C       FieldTerrainTexPatAnimation_HasData
 0008:0219EF9C       FieldTerrainTexPatAnimation_MatchTextureVRAMAddress
 0008:0219F02C       FieldTerrainTexPatAnimation_GetTextureSize
 0008:0219F094       FieldTerrainTexPatAnimation_GetTextureAddress
 0008:0219F0D8       FieldTerrainTexPatAnimationPack_GetGFBTP
 0008:0219F0E4       FieldTerrainTexPatAnimationPack_GetNSBTX
 0008:0219F0F0       GFBTPController_GetValue
 0008:0219F138       GFBTPController_GetTargetCount
 0008:0219F13C       GFBTPController_GetFrameCount
 0008:0219F140       GFBTPController_GetLastTargetKeyFrame
 0008:0219F160       GFBTPController_LoadFile
 0008:0219F402       jpt_219F400
 0008:0219F4DE       def_219F400
 0008:0219F650       jpt_219F64E
 0008:0219F6D0       def_219F64E
 0008:0219F7E0       Field_GetPlayerDirection
 0008:0219FCB6       jpt_219FCB4
 0008:0219FD74       def_219FCB4
 0008:021A02B4       LoadFieldMenuTexts
 0008:021A0A5C       CreateEncountManager
 0008:021A0BDC       FieldEncount_CalcEncountRate
 0008:021A0C34       FieldEncount_GenWildsCore
 0008:021A0C78       FieldEncount_GenWilds
 0008:021A0CA8       FieldEncount_RndCheckRoaming
 0008:021A0D30       FieldEncount_RndCheckNPoke
 0008:021A0E00       FieldEncount_CreateWildPkm
 0008:021A0F0C       FieldEncount_GenRoamingPkm
 0008:021A0F9C       makeNPokeFromData
 0008:021A0FB0       createNPkm
 0008:021A102C       ivs
 0008:021A1030       getSwarmLevelRangeFromData
 0008:021A1048       SetupEncountFlagsByPartyPokeAbil
 0008:021A1190       FieldEncount_CheckLevelRepelled
 0008:021A11CC       getSwarmDataPtr
 0008:021A1208       createSwarm
 0008:021A1278       FieldEncount_PrepareActiveSlots
 0008:021A12B0       jpt_21A12AE
 0008:021A1304       def_21A12AE
 0008:021A131C       FieldEncount_SetupFromData
 0008:021A1384       GetEncountIndexForPreferredType
 0008:021A1400       FieldEncount_CheckApplyHighLevelWilds
 0008:021A1470       FieldEncount_GenWildPokeParam
 0008:021A14C4       FieldEncount_SetRandomHeldItem
 0008:021A1548       FieldEncount_GenPID
 0008:021A15EC       GetEncountSlotByProbability
 0008:021A1618       EncountMakeRnd12
 0008:021A1638       EncountMakeRnd5T1
 0008:021A1658       EncountMakeRnd5T2
 0008:021A1678       EncountMakeRndFull
 0008:021A1680       EncSys_Create
 0008:021A16D0       EncSys_Free
 0008:021A16E8       EncSys_IsActive
 0008:021A1728       EncSys_Update
 0008:021A1790       EventWildBattleCall_CreateRandom
 0008:021A1914       EventWildBattleCall_CreateStatic
 0008:021A1A3C       BtlSetup_CreateFishing
 0008:021A1AFC       SaveBtlFieldStatus
 0008:021A1B54       FieldEncount_DecideTypeByTerrain
 0008:021A1BAC       EncSys_GetEncountRateConfig
 0008:021A1BD0       EncSys_CheckRNGEncounter
 0008:021A1C0C       FieldEncount_SetupNormal
 0008:021A1CEC       FieldEncount_SetupRoaming
 0008:021A1D70       FieldEncount_SetupNPoke
 0008:021A1DF4       BtlSetup_SetTrainerLocal
 0008:021A1E4E       jpt_21A1E4C
 0008:021A1ECE       def_21A1E4C
 0008:021A1ED4       ConvFieldWeatherToBtl
 0008:021A1EEE       jpt_21A1EEC
 0008:021A1F14       def_21A1EEC
 0008:021A1F18       EncountState_SyncToPlayer
 0008:021A1F58       EncountState_UpdateTerrain
 0008:021A1FBC       EncSys_UpdateEncountRate
 0008:021A2018       EncountState_GetEncountRateStepCounter
 0008:021A201C       EffectEncountState_Create
 0008:021A2034       EffectEncountState_Free
 0008:021A204C       PrepareFieldEncountSystem
 0008:021A20AC       UpdatePhenomenon
 0008:021A21B4       EncountSystem_CancelPhenomenon
 0008:021A21C0       EncountSystem_CancelPhenomenonIfActorHit
 0008:021A21C8       EncountState_CheckSpecialEncountPos
 0008:021A2210       CreateRandomPhenomenonEvent
 0008:021A24DC       setShakingSpotOff
 0008:021A25C4       positionShakingSpot
 0008:021A27CC       IsPositionOccupiedByActorAny
 0008:021A2860       EncountSystem_CancelPhenomenonIfActorHitCore
 0008:021A28AC       EncountSystem_CancelPhenomenonCore
 0008:021A2924       EffectEncount_GenDustCloudItem
 0008:021A29A8       max
 0008:021A29AC       GetRandomWingItemID
 0008:021A29E8       CallGivePhenomenonItem
 0008:021A2A10       GetTileTypeAtPos
 0008:021A2A2C       GetTileClass
 0008:021A2A34       GetTileFlags
 0008:021A2A3C       MapTile_IsValid
 0008:021A2A58       MapTile_BlocksCollision
 0008:021A2A7C       MapTile_IsReallyTallGrass
 0008:021A2A94       MapTile_IsLedgeU
 0008:021A2AA0       MapTile_IsLedgeD
 0008:021A2AAC       MapTile_IsLedgeL
 0008:021A2AB8       MapTile_IsLedgeR
 0008:021A2AC4       MapTile_IsQuicksand
 0008:021A2AD0       MapTile_IsReceptionCounter
 0008:021A2ADC       MapTile_IsPC
 0008:021A2AE8       MapTile_IsUnused0xD7
 0008:021A2AF4       MapTile_IsTV
 0008:021A2B00       MapTile_IsVendingMachine
 0008:021A2B0C       MapTile_IsBookcaseA
 0008:021A2B18       MapTile_IsBookcaseB
 0008:021A2B24       MapTile_IsBookcaseC
 0008:021A2B30       MapTile_IsBookcaseD
 0008:021A2B3C       MapTile_IsTrashCanA
 0008:021A2B48       MapTile_IsTrashCanB
 0008:021A2B54       MapTile_IsAssortmentA
 0008:021A2B60       MapTile_IsAssortmentB
 0008:021A2B6C       MapTile_IsAssortmentC
 0008:021A2B78       MapTile_IsNormalTallGrassSingleBtl
 0008:021A2B8C       MapTile_IsNormalTallGrassDoubleBtl
 0008:021A2BA0       MapTile_IsReallyTallGrassSingleBtl
 0008:021A2BAC       MapTile_IsReallyTallGrassDoubleBtl
 0008:021A2BB8       MapTile_IsTallGrassSingleBtl
 0008:021A2BD8       MapTile_IsTallGrassDoubleBtl
 0008:021A2BF8       MapTile_IsTallGrass
 0008:021A2C18       MapTile_IsStrengthHole
 0008:021A2C24       MapTile_IsSurfEdge
 0008:021A2C50       IsTileWaterfall
 0008:021A2C5C       MapTile_IsSnow_
 0008:021A2C68       MapTile_IsSnowNoCycling
 0008:021A2C74       MapTile_IsSnow
 0008:021A2C88       IsTileSlidingIce
 0008:021A2CA4       MapTile_IsSwamp
 0008:021A2CBC       IsTileSand
 0008:021A2CF0       IsTileSurfWater
 0008:021A2D38       MapTile_IsElectricField
 0008:021A2D44       MapTile_IsElectricRock
 0008:021A2D50       MapTile_IsCatwalkBody_
 0008:021A2D5C       MapTile_IsCatwalkEntryPoint
 0008:021A2D68       MapTile_IsDeepSand
 0008:021A2D98       TileExitBlockCheck_Up
 0008:021A2DB4       TileExitBlockCheck_Down
 0008:021A2DD0       TileExitBlockCheck_Left
 0008:021A2DE4       TileExitBlockCheck_Right
 0008:021A2DF8       MapTile_IsBlocksCycling
 0008:021A2E4C       MapTile_IsHiddenGrottoEntranceGrass
 0008:021A2ED4       GetTileEncountType
 0008:021A2F00       CheckSurfBeginTiles
 0008:021A2F48       FieldSceneArea_Create
 0008:021A2F78       FreeFieldSceneArea
 0008:021A2F88       BuildSceneArea
 0008:021A2FA4       ResetSceneArea
 0008:021A2FB4       FieldCameraArea_Update
 0008:021A30B0       SetFieldSceneAreaCameraAreaEnable
 0008:021A30B4       GetFieldSceneAreaCamera
 0008:021A30B8       GetFieldSceneAreaField
 0008:021A30BC       IsCamCollCheckFuncValid
 0008:021A30D4       IsCamCalcFuncValid
 0008:021A30EC       FieldCameraArea_CallCollCheckFunction
 0008:021A3114       FieldCameraArea_CallCalcFunction
 0008:021A3138       FieldSceneAreaLoader_Create
 0008:021A3170       FreeFieldSceneAreaLoader
 0008:021A3194       LoadCameraDataToSceneAreaLoader
 0008:021A31BC       ResetSceneAreaLoader
 0008:021A31D4       GetFldSceneAreaLoaderCameraData
 0008:021A31D8       GetFldSceneAreaLoaderCamCount
 0008:021A31DC       GetFldSceneAreaLoaderCamFuncsStaticOffs
 0008:021A31E4       FieldCameraArea_CIRCLE_CheckColl
 0008:021A325C       FieldCameraAreaCalc_CIRCLE_AimPlayerCentre
 0008:021A3350       FieldCameraAreaCalc_CIRCLE_FixedLookAt
 0008:021A3390       FieldCameraAreaCalc_RECT_CheckColl
 0008:021A3410       FieldCameraAreaCalc_RECT_PitchYawTZ
 0008:021A34A8       FieldCameraAreaCalc_RECT_PitchYawTZ_BeginDisableDelay
 0008:021A34CC       FieldCameraAreaCalc_RECT_PitchYawTZ_ResetEnableDelay
 0008:021A34F4       CalcFieldDynCameraLerpFactors
 0008:021A3544       FieldCameraAreaCalc_RECT_PitchYawTZLookatFOV_STAY
 0008:021A3568       FieldCameraAreaCalc_RECT_PitchYawTZLookatFOV_BeginDisableDelay
 0008:021A358C       FieldCameraAreaCalc_RECT_PitchYawTZLookatFOV_ResetEnableDelay
 0008:021A35B0       FieldCameraAreaCalc_RECT_LookatTargetOffs
 0008:021A365C       FieldCameraAreaCalc_RECT_FOV
 0008:021A36A4       FieldEffects_Create
 0008:021A3734       FieldEffects_Free
 0008:021A3750       FieldEffects_Update
 0008:021A3758       FieldEffects_Draw
 0008:021A3760       FieldEffects_GetField
 0008:021A3770       FieldEffects_GetArc
 0008:021A3774       FieldEffects_GetSeason
 0008:021A3778       FieldEffects_GetAreaIsExterior
 0008:021A377C       FieldEffects_Load
 0008:021A37B0       FieldEffects_FreeEffect
 0008:021A37D8       FieldEffects_IsLoaded
 0008:021A37EC       FieldEffects_GetHandleData
 0008:021A37F8       FieldEffects_InitEffectBuffer
 0008:021A3838       FieldEffects_FreeEffectBuffer
 0008:021A387C       FieldEffects_GetHandleByID
 0008:021A3898       FieldEffects_GetVTable
 0008:021A38B8       FieldEffects_TCBManagerInit
 0008:021A38F8       FieldEffects_TCBCreate
 0008:021A392C       FieldEffects_TCBManagerUpdate
 0008:021A394C       FieldEffectTCBStore_Create
 0008:021A39FC       FieldTerrainEffectTCB_Create
 0008:021A3B48       FieldEffects_SetLuminanceTable
 0008:021A3B4C       FieldEffects_ApplyLuminanceTable
 0008:021A3B74       FieldEffect_Shadow_Create
 0008:021A3BC8       FieldEffect_Shadow_Free
 0008:021A3E20       playSmokeEffect
 0008:021A3E44       freeSmokeEffect
 0008:021A4014       nullsub_45
 0008:021A4018       loadGrassEffects
 0008:021A404C       freeGrassEffects
 0008:021A4360       nullsub_131
 0008:021A4638       nullsub_132
 0008:021A5538       nullsub_133
 0008:021A59D8       nullsub_134
 0008:021A5CE8       nullsub_135
 0008:021A5D6C       EventTrainerEye_CheckAll
 0008:021A5ED4       EventTrainerEye_FindClashActor
 0008:021A5F60       EventTrainerEye_CheckActorClash
 0008:021A6020       EventTrainerEye_CalcLineOfSight
 0008:021A6038       EventTrainerEye_CalcLineOfSight_U
 0008:021A606C       EventTrainerEye_CalcLineOfSight_D
 0008:021A60A0       EventTrainerEye_CalcLineOfSight_L
 0008:021A60D4       EventTrainerEye_CalcLineOfSight_R
 0008:021A6108       EventTrainerEye_Create
 0008:021A612C       EventTrainerEye_CreateData
 0008:021A6170       EventTrainerEyeSub_StartMove
 0008:021A618C       EventTrainerEyeSub_ForceTrainerDir
 0008:021A61B8       EventTrainerEyeSub_DecideJumpOut
 0008:021A61EE       jpt_21A61EC
 0008:021A61FE       def_21A61EC
 0008:021A6204       EventTrainerEyeSub_TurnTrainer
 0008:021A6230       EventTrainerEyeSub_WaitTurnTrainer
 0008:021A624C       EventTrainerEyeSub_StartTerrainEffect
 0008:021A626C       EventTrainerEyeSub_WaitTerrainEffect
 0008:021A6288       EventTrainerEyeSub_JumpOut
 0008:021A629C       EventTrainerEyeSub_WaitJumpOut
 0008:021A62B4       EventTrainerEyeSub_Wait30F
 0008:021A62CC       EventTrainerEyeSub_DecideWalkOrStop
 0008:021A62E4       EventTrainerEyeSub_WalkOneStepToPlayer
 0008:021A6310       EventTrainerEyeSub_DecrementClashDist
 0008:021A6330       EventTrainerEyeSub_Wait8F
 0008:021A634C       EventTrainerEyeSub_TurnPlayer
 0008:021A63C0       EventTrainerEyeSub_WaitTurnPlayer
 0008:021A63E8       EventTrainerEyeSub_SetIdleMoveCode
 0008:021A6404       EventTrainerEyeSub_Finish
 0008:021A640C       EventTrainerEye_Update
 0008:021A6434       EventTrainerEye_Callback
 0008:021A6488       EventTrainerEye_CheckPathObstacle
 0008:021A6564       GetNPCTrainerID
 0008:021A65A0       CheckTrainerAlreadyDefeated
 0008:021A65F4       InitFieldScriptTrainerSetup
 0008:021A6670       CreateTrainerClashEvent
 0008:021A66A8       s0080_TrainerEyeEventInit
 0008:021A66F4       s0081_TrainerEyeEventStart
 0008:021A672C       s0083_TrainerGetBattleType
 0008:021A6750       s007F_TrainerEyeGetTrainerID
 0008:021A679C       s0082_TrainerGetActorID
 0008:021A67EC       s0084_ActorGetTrainerID
 0008:021A681C       s0085_CallTrainerBattle
 0008:021A689C       s0085_CallTrainerMultiBattle
 0008:021A6910       s0088_TrainerGetMessageTypes
 0008:021A697C       s008A_TrainerGetBattleType
 0008:021A69A0       s008B_TrainerBGMPlayPush
 0008:021A69E4       s008F_TrainerClassBGMPlayPush
 0008:021A6A20       s0090_TrainerBGMPlay
 0008:021A6A64       s008E_CallTrainerBattleEnd
 0008:021A6AA0       s0092_TrainerGetFieldAction
 0008:021A6AE0       s0093_TrainerGetPrizeItem
 0008:021A6B04       s0094_CallTradedPokemonBattle
 0008:021A6BF8       jpt_21A6BF6
 0008:021A6CCE       def_21A6BF6
 0008:021A6D18       s0137_SaveDataWrite
 0008:021A6D54       s0098_BGMPlay
 0008:021A6D9C       s0235_BGMPlayEx
 0008:021A6DEC       s0246_BGMFadeOutAll
 0008:021A6E34       s0245_BGMFadeOut
 0008:021A6E64       s009B_BGMIsPlaying
 0008:021A6E84       isSequenceNotPlaying
 0008:021A6EA4       s00A0_BGMWait
 0008:021A6F7C       s009E_BGMChangeMap
 0008:021A6FE8       s0238_BGMChangeMapEx
 0008:021A7060       s009F_BGMPlayPush
 0008:021A709C       s00A1_BGMPush
 0008:021A70D4       s00A2_BGMPop
 0008:021A7118       FieldScriptSubEventFinish_MEPlayback
 0008:021A7154       s024C_BGMAmbienceResume
 0008:021A7174       FieldScriptSubEventFinish_BGMPlayback
 0008:021A718C       ScriptWork_SESyncStoppedPlayers
 0008:021A71C0       ScriptWork_SESetSndBit
 0008:021A71E0       ScriptWork_SEWait
 0008:021A7210       ScriptWork_SEStop
 0008:021A7238       s00A6_SEPlay
 0008:021A7260       s00A7_SEStop
 0008:021A7270       ScriptNative_SEWait
 0008:021A7288       s00A8_SEWait
 0008:021A7298       s00A9_MEPlay
 0008:021A72CC       ScriptNative_MEWait
 0008:021A7318       s00AA_MEWait
 0008:021A7328       s00AB_PVPlay
 0008:021A73D8       ScriptNative_VoiceWait
 0008:021A73F0       s00AC_PVWait
 0008:021A7400       s00A3_ISSSwitchEnable
 0008:021A742C       s00A4_ISSSwitchDisable
 0008:021A7458       s00A5_ISSSwitchQuery
 0008:021A7490       EventPokeVoicePlay_Callback
 0008:021A74EC       s00B5_ItemAdd
 0008:021A753C       s00B6_ItemSub
 0008:021A758C       s00B7_ItemCheckSpace
 0008:021A75DC       s00B8_ItemCheckAmount
 0008:021A762C       s00B9_ItemGetCount
 0008:021A766C       s00BA_ItemIsTMHM
 0008:021A7690       s00BB_ItemGetPocket
 0008:021A76C4       s00BD_ItemGetClass
 0008:021A76F8       s02D4_ItemGetTMCount
 0008:021A7758       isMoveMachine
 0008:021A7764       s004C_WordSetPlayerName
 0008:021A779C       s0290_WordSetLoadRivalName
 0008:021A77E4       loadAllItemText
 0008:021A7814       s004D_WordSetItemName
 0008:021A7824       s004F_WordSetItemNameWithArticle
 0008:021A7834       s004E_WordSetItemNameEx
 0008:021A7898       s0050_WordSetTMMoveName
 0008:021A78CC       s0051_WordSetMoveName
 0008:021A78FC       s0056_WordSetPokeTypeName
 0008:021A792C       loadAllPkmNameText
 0008:021A795C       s0057_WordSetPokeSpecies
 0008:021A796C       s0058_WordSetPokeSpeciesWithArticle
 0008:021A797C       s0052_WordSetItemPocketName
 0008:021A79C4       s0053_WordSetPartyPokeSpecies
 0008:021A7A10       s0054_WordSetPartyPokeName
 0008:021A7A5C       s0055_WordSetDaycarePokeSpecies
 0008:021A7AA4       s005B_WordSetDaycarePokeName
 0008:021A7AEC       s005C_WordSetNumber
 0008:021A7B34       s0059_WordSetPlaceName
 0008:021A7B68       s005A_WordSetTrendName
 0008:021A7B98       s005E_WordSetCountry
 0008:021A7BC8       s005F_WordSetHobbyName
 0008:021A7BFC       s0063_WordSetSurveyAnswer
 0008:021A7C30       s0060_WordSetPassPowerName
 0008:021A7C84       s0061_WordSetTrainerClassName
 0008:021A7C94       s0062_WordSetTrainerClassNameWithArticle
 0008:021A7D44       s026C_WordSetMedalName
 0008:021A7D78       s026D_WordSetMedalRank
 0008:021A7DE4       s0299_WordSetLoadAbility
 0008:021A7E14       s029A_WordSetLoadNature
 0008:021A7E84       s029B_WordSetLoadJoinAvenueName
 0008:021A7EF8       s00C2_MapChangeWarp
 0008:021A7F64       s00BE_MapChangeFake
 0008:021A7FCC       s00C1_MapChangeQuicksand
 0008:021A8084       s00BF_MapChangeWarpPad
 0008:021A80EC       s00C3_MapChangeUnionRoom
 0008:021A811C       s00C4_MapChangeCore
 0008:021A819C       s00C0_MapChangeWarpRail
 0008:021A8220       s0247_MapChangeRail
 0008:021A82A4       s028A_MapChangeFlyWarp
 0008:021A83A8       s0047_YesNoWin
 0008:021A83D4       ListMenuEvent_Callback
 0008:021A8430       CreateListMenuCallEvent
 0008:021A8454       s00AD_ListMenuInitCommon
 0008:021A84C4       s00AE_ListMenu_AnchorTopLeft
 0008:021A8540       s00B2_ListMenu_AnchorTopRight
 0008:021A85BC       s00AF_ListMenuAdd
 0008:021A860C       s00B0_ListMenuShow
 0008:021A8634       s00B1_ListMenuShow2
 0008:021A865C       SystemMsgWin_Open
 0008:021A86B4       jpt_21A86B2
 0008:021A86CC       def_21A86B2
 0008:021A8738       ScriptNative_SystemMsgWinWait
 0008:021A8750       s0034_SystemMsg
 0008:021A87A8       s0035_SystemMsgAsync
 0008:021A8800       s0037_MsgSetLoadingSpinner
 0008:021A8878       s0036_InfoMsgClose
 0008:021A8890       s0040_MoneyWinDisp
 0008:021A8984       s0042_MoneyWinUpdate
 0008:021A8A34       s0041_MoneyWinClose
 0008:021A8A5C       ActorMsgWin_CalcAttachmentOffsetDynamic
 0008:021A8B60       ActorMsgWin_MulVecInvCamRot
 0008:021A8BB4       ActorMsgWin_GetAttachmentOffset
 0008:021A8BD2       jpt_21A8BD0
 0008:021A8C00       def_21A8BD0
 0008:021A8C56       jpt_21A8C54
 0008:021A8C92       def_21A8C54
 0008:021A8C94       ActorMsgWin_CalcWinPosAuto
 0008:021A8D30       ActorMsgWin_CreateWindow
 0008:021A8D5C       ActorMsgWin_CalcAttachmentPos
 0008:021A8E00       SetupActorMessageWindow
 0008:021A8ECC       ScriptNative_ActorMsgWinWait
 0008:021A8F28       CallFieldActorMessageDisp
 0008:021A8F64       s003C_ActorMsg
 0008:021A8FB0       s003D_ParentActorMsg
 0008:021A9078       s0278_FunfestDispSalesmanMessage
 0008:021A90F8       s0048_ActorMsgGendered
 0008:021A9124       s0049_ActorMsgVersioned
 0008:021A9130       s003E_ActorMsgClose
 0008:021A9148       s0087_TrainerSayMessage
 0008:021A9280       displayText
 0008:021A92C0       loadMsgBox
 0008:021A936C       s0038_InfoMsg
 0008:021A9378       s004A_ScreamMsg
 0008:021A9384       s0039_InfoMsgClose
 0008:021A939C       s003A_MultiMsg
 0008:021A945C       s003B_MsgWinCloseNo
 0008:021A9534       s0043_MsgPlaceSign
 0008:021A9620       s0044_MsgPlaceSignClose
 0008:021A967C       s0045_CheckerMsg
 0008:021A9720       s0046_CheckerMsgClose
 0008:021A9738       s003F_MsgWinCloseAll
 0008:021A9794       ScriptNative_AdvanceMessages
 0008:021A97FC       s004B_MsgWaitAdvance
 0008:021A980C       s0033_MsgSetAutoscrolls
 0008:021A9870       setupFormattedTextBuffer
 0008:021A98E4       LoadFieldScriptMessage
 0008:021A9934       s0064_ActorCmdExec
 0008:021A9978       WriteWalkRouteAcmdCore
 0008:021A9992       jpt_21A9990
 0008:021A99B4       def_21A9990
 0008:021A99EC       jpt_21A99EA
 0008:021A9A0E       def_21A99EA
 0008:021A9A18       AdjustVecByDir
 0008:021A9A28       jpt_21A9A26
 0008:021A9A56       def_21A9A26
 0008:021A9A58       WalkRouteDestPosBlockCheck
 0008:021A9B58       jpt_21A9B56
 0008:021A9CA0       def_21A9B56
 0008:021A9CCE       jpt_21A9CCC
 0008:021A9CE4       def_21A9CCC
 0008:021A9D6C       jpt_21A9D6A
 0008:021A9D88       def_21A9D6A
 0008:021A9EB0       CreateRouteActionQueue
 0008:021A9F1C       s024F_ActorWalkRoute
 0008:021A9FC8       ScriptNative_AcmdWait
 0008:021A9FDC       s0065_ActorCmdWait
 0008:021A9FEC       s0066_ActorGetMoveCode
 0008:021AA024       s0073_ActorSetMoveCode
 0008:021AA058       s0067_ActorGetGPos
 0008:021AA0A0       s0068_PlayerGetGPos
 0008:021AA0E4       s006E_PlayerGetDir
 0008:021AA108       s0069_ActorNew
 0008:021AA1A4       s006C_ActorDelete
 0008:021AA1D0       s006B_ActorAdd
 0008:021AA23C       s006D_ActorSetGPos
 0008:021AA29C       s006A_ActorGetSpawnFlag
 0008:021AA2CC       s0079_ActorGetUserParam
 0008:021AA330       WaitAndDisableEventMovement
 0008:021AA3F4       DisableAllButEventActorsMovement
 0008:021AA4C8       WaitAndDisableFollowerMovement
 0008:021AA4F8       PauseEventMModels
 0008:021AA550       EnableAllActorsMovementScr
 0008:021AA55C       s0074_ActorSetEyeToEye
 0008:021AA594       s0070_ActorFindByGPos
 0008:021AA618       s006F_PlayerGetActorInFront
 0008:021AA688       s0075_PlayerSetSpecialSequence
 0008:021AA6CC       s0076_PlayerMoveToYAsync
 0008:021AA754       s0248_PlayerMoveToYAsync_
 0008:021AA7DC       FindScrEnvPlayerActor
 0008:021AA7E8       s0077_PlayerTurnByTrigger
 0008:021AA8C8       s0078_PlayerGetExState
 0008:021AA900       jpt_21AA8FE
 0008:021AA916       def_21AA8FE
 0008:021AA920       s007B_ActorJumpToGPos
 0008:021AA9D8       s02BE_ActorMoveLinear
 0008:021AAA74       s0071_PlayerGetRailPos
 0008:021AAAB4       s0072_ActorGetRailPos
 0008:021AAB08       s007A_ActorPlayRailSlipdown
 0008:021AAB58       s007C_PlayerSetRailPos
 0008:021AABB0       s007D_ActorSetRailPos
 0008:021AAC1C       s007E_ActorPlayTeleportSeq
 0008:021AACA0       s0234_ActorFallDownToXZ
 0008:021AAE2E       jpt_21AAE2C
 0008:021AAE84       def_21AAE2C
 0008:021AB024       s02BB_Gym0601FanAmbienceStart
 0008:021AB040       trackId
 0008:021AB258       s00B3_FadeEx
 0008:021AB288       letBrightnessFinishAdjusting
 0008:021AB2B8       s01AA_CallSeasonBanner
 0008:021AB308       s01A8_FadeInBlackQ_
 0008:021AB338       s01A3_FadeInBlackQ
 0008:021AB368       s01A4_FadeOutBlackQ
 0008:021AB398       s01A5_FadeInWhiteQ
 0008:021AB3C8       s01A6_FadeOutWhiteQ
 0008:021AB3F8       s01AB_FadeInBlack
 0008:021AB428       s01AC_FadeOutBlack
 0008:021AB458       s01AD_FadeInWhite
 0008:021AB488       s01AE_FadeOutWhite
 0008:021AB4B8       s00B4_FadeExWait
 0008:021AB4C8       s01A7_FadeWait
 0008:021AB5DA       jpt_21AB5D8
 0008:021AB5FA       jpt_21AB5F8
 0008:021AB644       def_21AB5F8
 0008:021AB648       def_21AB5D8
 0008:021AB77C       s0125_BMPlayHOFMachineSeq
 0008:021AB7A8       s012F_PokecenPlayHealingSequence
 0008:021AB7F0       s0130_PokecenPCOpen
 0008:021AB828       s0131_PokecenPCIdle
 0008:021AB860       s0132_PokecenPCClose
 0008:021AB8A4       GetScrEnvBMSystem
 0008:021AB8B8       FieldPropSystem_FindPropAtGPos
 0008:021AB8D4       s012B_BMAnmPlayInv
 0008:021AB928       s012E_BMAnmPlayLoop
 0008:021AB96C       s012D_BMSetVisible
 0008:021AB9B4       s0126_BMChangeMdlID
 0008:021ABA00       s0127_BMCreateHandleByGPos
 0008:021ABA64       s0128_BMReleaseHandle
 0008:021ABA88       s0129_BMHndAudioVisualAnmPlay
 0008:021ABAD4       s0124_BMHndAnmPlay
 0008:021ABB08       s012C_BMHndAnmPause
 0008:021ABB2C       s012A_BMHndAnmWait
 0008:021ABB4C       ScriptNative_BMHndAnmWait
 0008:021ABB88       s023F_CallPlaceNameDisp
 0008:021ABBB0       s0149_CallFriendlyShopBuy
 0008:021ABC5C       jpt_21ABC5A
 0008:021ABC90       def_21ABC5A
 0008:021ABCAC       jpt_21ABCAA
 0008:021ABCC2       def_21ABCAA
 0008:021ABD00       StartShopCameraAnime
 0008:021ABD90       ScriptNative_UpdateShopUI
 0008:021ABDCC       jpt_21ABDCA
 0008:021ABE66       def_21ABDCA
 0008:021ABF88       swkId
 0008:021ABF8C       ShopUI_Init
 0008:021ABFC0       jpt_21ABFBE
 0008:021AC034       def_21ABFBE
 0008:021AC090       ShopUI_LoadCurrencyDispMsg
 0008:021AC0D4       ShopUI_GetBalance
 0008:021AC258       ShopUI_UpdateItemBrowse
 0008:021AC300       ShopUI_WaitAB
 0008:021AC374       ShopUI_SpendMoney
 0008:021AC3B0       ShopUI_Update
 0008:021AC3CA       jpt_21AC3C8
 0008:021AC620       def_21AC3C8
 0008:021AC678       ShopUI_CheckSellingTMHM
 0008:021AC6A0       ShopUI_AppendOption
 0008:021AC764       ShopUI_LoadPokeMartItems
 0008:021AC878       narcPtrIdxNum
 0008:021AC87C       ShopUI_LoadBPShopItems
 0008:021AC91C       ShopUI_LoadSpecialPokeMartItems
 0008:021AC984       ShopUI_LoadMoveTutorItems
 0008:021ACA44       ShopUI_FreeListMenu
 0008:021ACA54       ShopUI_LoadMsgData
 0008:021ACAD8       ShopUI_FreeText
 0008:021ACB38       ShopUI_LoadG2D
 0008:021ACBD4       ShopUI_FreeBG
 0008:021ACBF4       ShopUI_CreateCellActors
 0008:021ACCDC       ShopUI_LoadItemSprite
 0008:021ACEA4       ShopUI_SetupSprites
 0008:021ACF44       ShopUI_SetupBmpWin
 0008:021AD060       ShopUI_FreeSprites
 0008:021AD08C       ShopUI_UpdateMoneyDisp
 0008:021AD2D4       ShopUI_UpdateItemAmountDisp
 0008:021AD3F0       ShopUI_SetupMenuList
 0008:021AD724       ShopUI_SetStatusDialogue
 0008:021AD7FC       ShopUI_SetBuyConfirmMessage
 0008:021AD9FC       ShopUI_SetupMoveBuyMsg
 0008:021ADA6C       ShopUI_ChangeItemAmount
 0008:021ADB24       ShopUI_UpdateInput
 0008:021ADC5C       GetMoveTutorShopSortimentBits
 0008:021ADCAC       s013A_GameCommGetStatus
 0008:021ADD14       s015D_NetConnectWiFiClub
 0008:021ADD58       s015E_NetConnectGTS
 0008:021ADD9C       s0162_NetConnectGTSNegotiation
 0008:021ADE20       s014F_CallPC
 0008:021ADF18       s0205_CallGreetingPhraseInput
 0008:021ADF5C       s0206_CallThanksPhraseInput
 0008:021ADFA0       s02CA_CallHappyPhraseInput
 0008:021ADFE4       s0156_CallGameClear
 0008:021AE020       s0197_CGearPowerOn
 0008:021AE06C       s0152_CallGeonet
 0008:021AE0B4       s014D_CallRecordSystem
 0008:021AE140       s0155_CallXTransceiver
 0008:021AE284       s0284_CallPlaceSelect
 0008:021AE374       s0285_CallWordSetPokeNameInput
 0008:021AE3D4       s0174_CallWildBattle
 0008:021AE430       s0297_CallWildBattleEx
 0008:021AE49C       s0175_CallWildBattleEnd
 0008:021AE4D8       s0179_CallCaptureDemo
 0008:021AE508       s00BC_PhenomenonGetItemID
 0008:021AE570       LoadEventEncountPokemonToBuffer
 0008:021AE59C       s021E_FishingChallengeGetRandomPkm
 0008:021AE684       s02C2_RepelRearm
 0008:021AE714       CloseEventCamera
 0008:021AE750       FieldScriptSubEventFinish_EvCamera
 0008:021AE76C       s013F_EvCameraInit
 0008:021AE7DC       s0140_EvCameraEnd
 0008:021AE7FC       s0141_EvCameraUnbind
 0008:021AE814       s0142_EvCameraRebind
 0008:021AE82C       s0143_EvCameraMoveTo
 0008:021AE89C       s0146_EvCameraMoveToCommon
 0008:021AE908       s0144_EvCameraReturn
 0008:021AE944       s0147_EvCameraMoveToDefault
 0008:021AE96C       s0145_EvCameraWait
 0008:021AE998       s0148_EvCameraShake
 0008:021AEA38       EventWaitCameraSetEvCamera_Callback
 0008:021AEA60       EventFieldCameraWait_Callback
 0008:021AEE34       s0107_CallPokeSelect
 0008:021AEEAC       s011D_TrainerCardSetFavePokemon
 0008:021AEF1C       s011E_TrainerCardSaveGymVictoryParty
 0008:021AEFA0       s011F_WordSetGymVictoryParty
 0008:021AF008       s0224_PokePartyGetIV
 0008:021AF0B8       jpt_21AF0B6
 0008:021AF0E8       def_21AF0B6
 0008:021AF0F0       s01C5_PokeDexGetEvaluationParams
 0008:021AF144       s01C4_PokeDexIsComplete
 0008:021AF1B0       PokeParty_GetTutorMoveID
 0008:021AF234       pPkm
 0008:021AF240       PML_PkmGetHapinessMax
 0008:021AF244       PokeParty_CheckTutorMoveCompat
 0008:021AF2D4       CheckPartyAllMoveTutor
 0008:021AF380       s01D1_MoveTutorCheckParty
 0008:021AF3B0       s01D3_MoveTutorGetMoveID
 0008:021AF3F0       s01D2_MoveTutorCheckPkm
 0008:021AF474       s01D4_MoveTutorCallPokeSelect
 0008:021AF524       s0100_PokePartyCheckPokerus
 0008:021AF570       s0223_PokePartyGetHiddenPowerType
 0008:021AF5BC       itemNum
 0008:021AF5C4       s0105_CallPokeNameInput
 0008:021AF614       s0109_CallPokeMoveReplace
 0008:021AF698       s0106_CallEggHatch
 0008:021AF748       s01B5_FieldTradeCheck
 0008:021AF860       s01B4_FieldTradeStart
 0008:021AF8A4       s02C0_FieldTradeGetSpecies
 0008:021AF8F4       s0225_ItemGetRandomOwnedTMMove
 0008:021AF93C       s0120_FieldTradeSavePokemon
 0008:021AF98C       s022F_WordSetLoadPastTradePkmName
 0008:021AFC94       GetOTZekromPartyIdx
 0008:021AFD0C       s0134_CasteliaRushInit
 0008:021AFE00       ElevatorTable_GetEntry
 0008:021AFE08       nullsub_136
 0008:021AFE0C       ElevatorTable_CountEntries
 0008:021AFE3C       s01C1_ElevatorSetTablePtr
 0008:021AFE58       s01C2_ElevatorBuildListMenu
 0008:021AFEC4       msgId2
 0008:021AFEC8       s01C2_ElevatorChangeMap
 0008:021AFF38       s01FC_ItemCollectorGetPrice
 0008:021AFFCC       s01FB_ItemCollectorCheckGroup
 0008:021B007C       s0236_WordSetLoadItemCollectorPrice
 0008:021B012C       s0237_ItemCollectorSell
 0008:021B0260       FieldRailSystem_Create
 0008:021B0310       FieldRailSystem_Load
 0008:021B034C       FieldRailSystem_HasData
 0008:021B035C       FieldRailSystem_AcquireUnit
 0008:021B0398       FieldRailSystem_ReleaseUnit
 0008:021B03B0       FieldRailSystem_SetCameraParent
 0008:021B03B8       FieldRailSystem_ClearCameraParent
 0008:021B03C0       FieldRailSystem_GetCameraParentPos
 0008:021B03DC       FieldRailSystem_UpdateCamera
 0008:021B0470       CalculateRailCurves
 0008:021B0644       FieldRailSystem_NormalizePos
 0008:021B0754       FieldRailSystem_SetPlayerPos
 0008:021B08D0       RailUnit_SetRailPos
 0008:021B0A14       RailUnit_GetCalcPos
 0008:021B0C08       FieldRailSystem_GetFieldCamera
 0008:021B0C0C       FieldRailSystem_GetCameraParentUnit
 0008:021B0C10       FieldRailSystem_GetPoint
 0008:021B0C1C       FieldRailSystem_GetLine
 0008:021B0C28       GetRailHnd2Curve
 0008:021B0C34       FieldRailSystem_GetTileWidth
 0008:021B0CDC       RailUnit_IsOnLine
 0008:021B0CE0       GetCurrentLine
 0008:021B0CE4       GetCurrentLinePosV
 0008:021B0CE8       GetCurrentLineLength
 0008:021B0CEC       GetCurrentLinePosH
 0008:021B0CF4       RailUnit_GetTileWidth
 0008:021B0CF8       GetRailCameraByCamHandler
 0008:021B0D28       GetCurrentRailLinePoint1
 0008:021B0D38       GetCurrentRailLinePoint2
 0008:021B0D48       RailUnit_GetCurve
 0008:021B0D58       GetRailCameraByPoint
 0008:021B0DE8       SetWkToActorRailPos
 0008:021B0F00       GetLineContinueInDirection
 0008:021B1044       RailUnit_SetLineInfo
 0008:021B1090       SetupLineWidthForLineChange
 0008:021B11C4       GetRailPoint
 0008:021B11E8       GetRailLine
 0008:021B120C       GetRailCamera
 0008:021B1234       GetRailCurve
 0008:021B125C       GetRailCameraCurveFunc
 0008:021B1280       GetHandler1CurveFunc
 0008:021B12A4       GetHandler2CurveFunc
 0008:021B1B50       RailUnit_SetDataCore
 0008:021B1B88       RailUnit_SetData
 0008:021B1B94       RailUnit_GetState
 0008:021B1BB4       GetRailCameraByHandlerImpl
 0008:021B1C64       GetLineTileLengthWorldSpace
 0008:021B1C6C       GetLerpedLineWidthByLineYPos
 0008:021B2154       nullsub_21
 0008:021B2510       InterpolateRailPointsGlobal
 0008:021B2568       RailMath_RailToWorldNoCurve
 0008:021B2614       RailMath_RailToWorldSlerpXZ
 0008:021B274C       RailMath_RailToWorldSlerpXYZ
 0008:021B2870       RailMath_WorldToRailNoCurve
 0008:021B29B4       RailMath_WorldToRailSlerp
 0008:021B2C48       RailCameraFuncSetStaticPYR
 0008:021B2CA0       RailCameraFuncSetStaticPYDist
 0008:021B3A74       AllocateRailAttrBlock
 0008:021B3AA0       FieldRailTilemap_Load
 0008:021B3B28       FieldRailTilemap_GetTileAtPos
 0008:021B3BE4       FieldNoGridMapper_Create
 0008:021B3C30       FieldNoGridMapper_Free
 0008:021B3C50       FieldNoGridMapper_SetCameraAreaEnabled
 0008:021B3C68       FieldNoGridMapper_Load
 0008:021B3CE8       FieldNoGridMapper_LoadByHeader
 0008:021B3D38       FieldNoGridMapper_Reset
 0008:021B3D5C       FieldNoGridMapper_HasRailData
 0008:021B3D70       FieldNoGridMapper_UpdateCamera
 0008:021B3D8C       FieldNoGridMapper_ForceUpdateCamera
 0008:021B3D98       FieldNoGridMapper_AcquireUnit
 0008:021B3DA4       FieldNoGridMapper_ReleaseUnit
 0008:021B3DB0       FieldNoGridMapper_SetCameraParent
 0008:021B3DBC       FieldNoGridMapper_ClearCameraParent
 0008:021B3DC8       FieldNoGridMapper_GetTileAtPos
 0008:021B3DD4       FieldNoGridMapper_SetPlayerPos
 0008:021B3DEC       FieldNoGridMapper_CreatePosExternal
 0008:021B3E84       FieldNoGridMapper_GetRailSystem
 0008:021B402C       nullsub_46
 0008:021B42B4       FieldAsyncProcManager_Create
 0008:021B4330       FieldAsyncProcManager_Free
 0008:021B436C       FieldAsyncProcManager_Update
 0008:021B4378       FieldAsyncProcManager_Draw
 0008:021B4384       FieldAsyncProc_TCBUpdate
 0008:021B439C       FieldAsyncProc_TCBDraw
 0008:021B43B4       FieldAsyncProcManager_AddProc
 0008:021B4440       FieldAsyncProc_End
 0008:021B4490       FieldAsyncProc_GetData
 0008:021B49A0       nullsub_47
 0008:021B49DC       nullsub_48
 0008:021B49E0       nullsub_49
 0008:021B4EA4       AdjustFieldCameraPitchForJoinAve
 0008:021B4EEC       isGameVerWhite2
 0008:021B4F00       FieldPlaceName_Create
 0008:021B4FCC       FieldPlaceName_Free
 0008:021B50B4       jpt_21B50B2
 0008:021B50F8       def_21B50B2
 0008:021B5158       BeginContinuePlaceNameDisp
 0008:021B5184       BeginForcePlaceNameDisp
 0008:021B51C0       endColorBlending
 0008:021B5674       IsLocNameIdxChanged
 0008:021B5756       jpt_21B5754
 0008:021B579A       def_21B5754
 0008:021B580C       jpt_21B580A
 0008:021B581E       def_21B580A
 0008:021B59CC       nullsub_50
 0008:021B59D0       nullsub_51
 0008:021B59D4       __endColorBlending
 0008:021B59DC       nullsub_52
 0008:021B59E0       nullsub_53
 0008:021B59E4       nullsub_54
 0008:021B59E8       _endColorBlending
 0008:021B59F0       FieldPlaceName_Alloc
 0008:021B5ACC       FieldPlaceName_GetHeapID
 0008:021B5AD0       FieldPlaceName_GetArc
 0008:021B5B58       PlaceName_GetReqZoneID
 0008:021B5B60       SetPlaceNameDispZone
 0008:021B5B78       CheckPopupPlaceNameDispAuto
 0008:021B5B90       jpt_21B5B8E
 0008:021B5BAE       def_21B5B8E
 0008:021B64E8       FesGimmick_Create
 0008:021B6558       FesGimmick_Free
 0008:021B6574       FesGimmick_SetEnabled
 0008:021B65CC       FesGimmick_BindActorSystem
 0008:021B65F0       FesGimmick_BindPlayer
 0008:021B6678       ClearFesEventFlags
 0008:021B6714       FesGimmick_IsCurrent
 0008:021B67C4       DeleteFunfestActor
 0008:021B682C       hollowFesMissions
 0008:021B6B2E       jpt_21B6B2C
 0008:021B6BCE       def_21B6B2C
 0008:021B7374       EventWarpSequence_CreateOut
 0008:021B739C       jpt_21B739A
 0008:021B73C2       def_21B739A
 0008:021B74A4       EventWarpSequence_UpdateTCB
 0008:021B75CA       jpt_21B75C8
 0008:021B7638       def_21B75C8
 0008:021B7688       EventWarpSequenceOut_ShouldKeepBGM
 0008:021B76CC       EventWarpSequenceOut_CheckISSPersist
 0008:021B7704       EventWarpSequenceOut_GetPlayerExState
 0008:021B7714       EventWarpSequenceOut_ChangeToZoneBGM
 0008:021B7784       EventWarpSequence_CreateIn
 0008:021B77AC       jpt_21B77AA
 0008:021B77D2       def_21B77AA
 0008:021B789E       jpt_21B789C
 0008:021B78EE       def_21B789C
 0008:021B78F4       EventWarpSequence_CallbackSpinDown
 0008:021B7F30       FieldCamera_ChangeRefPos
 0008:021B7FB4       Field_InitGimmick
 0008:021B7FF4       Field_TerminateGimmick
 0008:021B8034       Field_UpdateGimmick
 0008:021B8064       Field_CheckGimmickID
 0008:021B8084       FieldExpObj_Create
 0008:021B80BC       FieldExpObj_Free
 0008:021B80EC       FieldExpObj_AddScene
 0008:021B81F4       FieldExpObj_FreeScene
 0008:021B825C       FieldExpObj_GetActorMatrixPtr
 0008:021B8290       FieldExpObj_SetActorHidden
 0008:021B82B0       FieldExpObj_GetActor
 0008:021B8364       FieldExpObj_Draw
 0008:021B83EC       FieldExpObj_StepAllAnimations
 0008:021B849C       FieldExpObj_AllocAnmSet
 0008:021B84E0       FieldExpObj_GetAnmInfo
 0008:021B8520       FieldExpObjAnm_SetPaused
 0008:021B8528       FieldExpObjAnm_SetLooped
 0008:021B852C       FieldExpObjAnm_IsPlaybackFinished
 0008:021B853C       FieldExpObj_SetAnmFrame
 0008:021B8570       FieldExpObj_SetAnm
 0008:021B85D0       LoadFieldExpandObjData
 0008:021B870C       GetOutTransitionTypeBetweenZones
 0008:021B8728       GetInTransitionTypeBetweenZones
 0008:021B8744       CallFieldMapEntranceOutTransitionDefault
 0008:021B8758       CallFieldMapEntranceOutTransition
 0008:021B876C       jpt_21B876A
 0008:021B8780       def_21B876A
 0008:021B87C4       CallFieldMapEntranceInTransition
 0008:021B87D8       jpt_21B87D6
 0008:021B87EC       def_21B87D6
 0008:021B8914       jpt_21B8912
 0008:021B8928       def_21B8912
 0008:021B8A74       EventGameTransition_SeasonBanner_Create
 0008:021B8CE0       jpt_21B8CDE
 0008:021B8CE8       def_21B8CDE
 0008:021B8DB8       setupScreenForEnterBuilding
 0008:021B8E64       jpt_21B8E62
 0008:021B8F5E       def_21B8E62
 0008:021B8F6C       EventGameTransition_SeasonBanner_Callback
 0008:021B9104       jpt_21B9102
 0008:021B9158       def_21B9102
 0008:021B9268       jpt_21B9266
 0008:021B92C4       def_21B9266
 0008:021B92E8       jpt_21B92E6
 0008:021B9344       def_21B92E6
 0008:021B9368       jpt_21B9366
 0008:021B93C4       def_21B9366
 0008:021B93E8       jpt_21B93E6
 0008:021B9444       def_21B93E6
 0008:021B94A4       FieldG3D_SetLCDConfigKeepBGs
 0008:021B94CC       FieldFadeTCB_Start
 0008:021B9524       FieldFadeTCB_Callback
 0008:021B95BC       EventQuicksandArrive_Create
 0008:021B9674       EventPlayerSpinDown_Create
 0008:021B96C4       EventQuicksandArrive_Callback
 0008:021B96E8       jpt_21B96E6
 0008:021B9790       def_21B96E6
 0008:021B97C6       jpt_21B97C4
 0008:021B9824       def_21B97C4
 0008:021B9ACE       jpt_21B9ACC
 0008:021B9BBA       def_21B9ACC
 0008:021B9BC0       EventPlayerSpinDown_Callback
 0008:021B9BE6       jpt_21B9BE4
 0008:021B9CBE       def_21B9BE4
 0008:021B9D64       EventQuicksandDrawIn_Create
 0008:021B9DA0       EventEscapeRope_Create
 0008:021B9DD0       EventDig_Create
 0008:021B9E00       EventTeleportEffect_Create
 0008:021B9E5C       EventQuicksandDrawIn_Callback
 0008:021B9E96       jpt_21B9E94
 0008:021BA0EC       def_21B9E94
 0008:021BA0FC       EventEscapeRope_Callback
 0008:021BA11C       jpt_21BA11A
 0008:021BA16C       def_21BA11A
 0008:021BA250       EventDig_Callback
 0008:021BA270       jpt_21BA26E
 0008:021BA2C2       def_21BA26E
 0008:021BA3CC       EventTeleportEffect_Callback
 0008:021BA51E       jpt_21BA51C
 0008:021BA5C2       def_21BA51C
 0008:021BA854       FieldPlayerGrid_CheckObjContactEvent
 0008:021BA894       FieldPlayerGrid_CheckObjContactEventCore
 0008:021BA8B8       StrengthRockSpaceCheck
 0008:021BA98C       FieldPlayerGrid_CheckStrengthRockPushEvent
 0008:021BA9FC       EventStrengthRockPush_Create
 0008:021BAA48       EventStrengthRockPush_Callback
 0008:021BABD4       FieldSurfTCB_Create
 0008:021BAC44       FieldSurfTCB_CheckEnd
 0008:021BAC50       FieldSurfTCB_Free
 0008:021BAC64       FieldSurfTCB_Callback
 0008:021BAC86       jpt_21BAC84
 0008:021BADD0       def_21BAC84
 0008:021BADD4       FieldWaterfallTCB_Create
 0008:021BAE70       FieldWaterfallTCB_CheckEnd
 0008:021BAE7C       FieldWaterfallTCB_Free
 0008:021BB27C       jpt_21BB27A
 0008:021BB52E       def_21BB27A
 0008:021BB540       zoomAdd
 0008:021BB548       FieldWaterfallTCB_Callback
 0008:021BB574       FieldPlayerGrid_FindFrontActor
 0008:021BB658       FieldParticle_LoadResource
 0008:021BB6B4       Fld3DCi_Create
 0008:021BB7BC       param2
 0008:021BB7C4       Fld3DCi_Free
 0008:021BB7E4       Fld3DCi_LoadG3DScene
 0008:021BB80C       Fld3DCi_Draw
 0008:021BB870       EventFieldEffect_Create
 0008:021BB8E0       EventFieldEffect_CreatePokeSpriteCore
 0008:021BB930       EventFieldEffect_CreatePokeSprite
 0008:021BB994       EventFieldEffect_CreateBattleCutin
 0008:021BBA4C       EventFieldEffect_Callback
 0008:021BBA76       jpt_21BBA74
 0008:021BBB3C       def_21BBA74
 0008:021BBE20       Fld3DCi_UpdateParticles
 0008:021BBEA8       Fld3DCi_UpdateActor1
 0008:021BBF14       Fld3DCi_UpdateActor2
 0008:021BBF88       EventFieldEffect_LoadGraphics
 0008:021BC108       Fld3DCi_FreeG3D
 0008:021BC174       Fld3DCi_LoadG3DSceneTemplate
 0008:021BC3F0       Fld3DCi_RequestScreenCap
 0008:021BC410       Fld3DCi_ScreenCapTCB
 0008:021BC430       Fld3DCi_BackupBGPriorities
 0008:021BC44C       Fld3DCi_BackupScreenDispA
 0008:021BC480       EventFieldEffectPokeSpriteSub_Callback
 0008:021BC4E0       EventFieldEffectPokeSpriteSub_ControlEffect
 0008:021BC5A4       EventFieldEffectPokeSpriteSub_ConvertSprite
 0008:021BC7A8       EventFieldEffectFadeOutWhite_Callback
 0008:021BC7E8       EventFieldEffectFadeInWhiteTop_Callback
 0008:021BC824       EventFieldEffectFadeInAllBlack_Callback
 0008:021BC87C       Fld3DCi_ConvG2DToG3D
 0008:021BC9D4       EventFieldEffectCutinSub_ControlEffect
 0008:021BCA48       EventFieldEffectCutinSub_Callback
 0008:021BCA9C       jpt_21BCA9A
 0008:021BCBFA       def_21BCA9A
 0008:021BCC24       EventFld3DCiBitmapConv_Callback
 0008:021BCD48       NNS_G3DResTexGetTexRAMAddress
 0008:021BCD80       NNS_G3DResTexGetPltRAMAddress
 0008:021BCDBC       NNS_G3DNormalizeName
 0008:021BCDF0       EventFieldEffectCutinSub_DrawStrToTexture
 0008:021BCF80       EventFieldEffect_CreateAlderFly
 0008:021BCF9C       EventFieldEffect_DimCaptureColor
 0008:021BD020       Fld3DCi_UpdateSound
 0008:021BD05C       Fld3DCi_UpdateFade
 0008:021BD0E8       Fld3DCiFade_Create
 0008:021BD128       Fld3DCi_AllFadeTCB
 0008:021BD178       Fld3DCiFadeState_Apply
 0008:021BD1D0       Fld3DCiFadeState_Set
 0008:021BD2C0       Fld3DCiFade_Free
 0008:021BD2D4       Fld3DCiFade_IsRunning
 0008:021BD2E4       DayCare_Create
 0008:021BD30C       DayCare_Free
 0008:021BD314       DayCare_AddPkm
 0008:021BD358       DayCare_RecoverPkm
 0008:021BD360       shayminTransform
 0008:021BD380       DayCare_RemovePkm
 0008:021BD3CC       DayCare_SyncPokedex
 0008:021BD404       DayCare_Breed
 0008:021BD46C       DayCare_CheckResetSeed
 0008:021BD488       DayCare_Update
 0008:021BD4B4       setPartyHasSpaceToConst
 0008:021BD4F0       setPartyFullToConst
 0008:021BD510       DayCare_CheckSpawnFlag
 0008:021BD51C       DayCare_GetPkmCount
 0008:021BD52C       DayCare_CalcNewLevel
 0008:021BD5A0       DayCare_CalcLevelGain
 0008:021BD5C4       DayCare_CalcWithdrawCost
 0008:021BD5D4       DayCare_CalcEggSpawnChance
 0008:021BD644       item_idx
 0008:021BD648       DayCare_GetPkm
 0008:021BD660       DayCare_CalcNewExp
 0008:021BD680       DayCare_CommitPkmGrowth
 0008:021BD75C       writeLvUpMoveOpenSlot
 0008:021BD800       DayCareSave_ShiftPkms
 0008:021BD83C       DayCare_CalcBaseEggSpawnChance
 0008:021BD948       DayCare_CalcBaseEggSpawnChanceCore
 0008:021BD9AC       DayCare_CheckEggSpawn
 0008:021BD9E8       DayCare_CreateChildPkm
 0008:021BDA58       d
 0008:021BDA5C       updateChatotPartyStatus
 0008:021BDA74       breeding
 0008:021BDBA4       genderSort
 0008:021BDBE8       setGenderlessFirst
 0008:021BDC14       swapDaycarePKMPointers
 0008:021BDC20       clearEggDataBlk
 0008:021BDC34       getChild
 0008:021BDC50       nidoranCompute
 0008:021BDC9C       volbeatCompute
 0008:021BDCE8       manaphyHandler
 0008:021BDD08       incenseHandler
 0008:021BDD8C       checkSecondPokemonDitto
 0008:021BDDA8       zeroFormData
 0008:021BDDB0       shellosHandler
 0008:021BDDE0       burmyHandler
 0008:021BDE0C       basculinHandler
 0008:021BDE38       checkSecondPokemonDitto2
 0008:021BDE54       getNature
 0008:021BDE84       everstoneHandler
 0008:021BDF30       abilDecision
 0008:021BDFA8       dittoAbilFix
 0008:021BDFFC       FetchEggBaseHappiness
 0008:021BE028       SetPowerItemInheritedIVs
 0008:021BE148       SetRandomInheritedIVs
 0008:021BE1F0       makeIVSet
 0008:021BE280       getEggIDSet
 0008:021BE28C       rerollEggPID
 0008:021BE2C0       shinyBreedHandler
 0008:021BE338       levelMoves
 0008:021BE3AC       inheritEggMoves
 0008:021BE414       inheritLvlUpMoves
 0008:021BE4EC       inheritTmMoves
 0008:021BE570       pichuLightBallHandler
 0008:021BE5A8       PushEggPkmMove
 0008:021BE5F4       createEggPkm
 0008:021BE718       canPkmLearnTMItemNumber
 0008:021BE7A0       validateSpeciesAndGetOffspring
 0008:021BE9BC       nullsub_137
 0008:021BEAE4       nullsub_138
 0008:021BEBA8       FieldSoundEmitter_CreateAndSet
 0008:021BEC10       FieldSoundEmitter_Create
 0008:021BEC3C       FieldSoundEmitter_Free
 0008:021BEC54       FieldSoundEmitter_BindMotionCurve
 0008:021BEC78       FieldSoundEmitter_StepTransRot
 0008:021BEC9C       FieldSoundEmitter_SetAnimFrame
 0008:021BECB4       FieldSoundEmitter_GetAnimFrame
 0008:021BECC8       FieldSoundEmitter_ApplyCurveLocation
 0008:021BED00       FieldSoundEmitter_ApplyCurveRotation
 0008:021BF0E2       jpt_21BF0E0
 0008:021BF1C4       def_21BF0E0
 0008:021BF94C       prepareForPokemonNameEntryData
 0008:021BFDA8       EventPokeNameWordSetInput_Create
 0008:021BFE10       EventPokeNameWordSetInput_Callback
 0008:021BFEC0       FieldG3DObjSystem_Create
 0008:021BFF14       FieldG3DObjSystem_Free
 0008:021BFF84       FieldG3DObjSystem_SetupResources
 0008:021BFFF4       FieldG3DObjSystem_Draw
 0008:021C0048       FieldG3DObjSystem_SetColorPostFX
 0008:021C004C       FieldG3DObjSystem_AddResGroupCore
 0008:021C0088       FieldG3DObjSystem_AddResGroup
 0008:021C0094       FieldG3DObjSystem_FreeResGroup
 0008:021C00A4       FieldG3DObjSystem_AddObj
 0008:021C013C       FieldG3DObjSystem_FreeObj
 0008:021C016C       FieldG3DObjSystem_GetObjTransform
 0008:021C0178       FieldG3DObjSystem_SetObjPosition
 0008:021C01A8       FieldG3DObjSystem_StepObjAnm
 0008:021C0200       FieldG3DObjSystem_StepObjAnmLoop
 0008:021C0258       FieldG3DObjSystem_SetAnmFrame
 0008:021C02BC       FieldG3DObjSystem_GetAnmFrame
 0008:021C0308       FieldG3DObjSystem_DrawObj
 0008:021C0368       FieldG3DObjResGroup_SetupTextures
 0008:021C0388       FieldG3DObjResGroup_LoadResources
 0008:021C0434       FieldG3DObjResGroup_Free
 0008:021C04A8       FieldG3DObj_Setup
 0008:021C0584       FieldG3DObj_Free
 0008:021C05D4       FieldG3DObjResRequest_Clear
 0008:021C05E4       FieldG3DObjResRequest_SetModel
 0008:021C05EC       FieldG3DObjResRequest_SetAnmArc
 0008:021C05F0       FieldG3DObjResRequest_AddAnm
 0008:021C0680       FieldCameraZoomTCB_Create
 0008:021C071C       FieldCameraZoomTCB_Callback
 0008:021C07EC       FieldCameraZoomTCB_Calc
 0008:021C08A8       FieldTask_Create
 0008:021C08E0       FieldTask_Free
 0008:021C08F4       FieldTask_Run
 0008:021C08FC       FieldTask_SetStarted
 0008:021C0904       FieldTask_GetData
 0008:021C0908       FieldTask_CheckStateReqEnd
 0008:021C0918       FieldTask_GetState
 0008:021C091C       FieldTask_GetCallback
 0008:021C0928       FieldTask_ReqEnd
 0008:021C0930       FieldTask_ExecCallback
 0008:021C094C       FieldTaskManager_Create
 0008:021C0998       FieldTaskManager_Free
 0008:021C09CC       FieldTaskManager_Update
 0008:021C0A1C       FieldTaskManager_AddTask
 0008:021C0A5C       FieldTaskManager_GetActiveTaskCount
 0008:021C0A84       FieldTaskManager_IsIdle
 0008:021C0A98       FieldTaskManager_CheckCallbackRegistered
 0008:021C0AC8       FieldTaskManager_SetTask
 0008:021C0AE0       FieldTaskManager_EndTask
 0008:021C0B00       FieldTaskManager_RunTask
 0008:021C0B14       FieldTaskManager_UpdateParentControlTransfer
 0008:021C0B48       FieldTaskManager_UpdateEndTasks
 0008:021C0B6C       FieldCameraMoveTaskZoom_Create
 0008:021C0B9C       FieldCameraMoveTaskZoom_Calc
 0008:021C0C88       FieldCameraMoveTaskYaw_Callback
 0008:021C0CC4       FieldCameraMoveTaskPitch_Callback
 0008:021C0D00       FieldCameraMoveTaskAngle_CalcStartValues
 0008:021C0D48       FieldCameraMoveTaskAngle_Calc
 0008:021C0E10       FieldCameraMoveTaskAngle_Callback
 0008:021C0E40       FieldActorSpinTask_CreatePlayer
 0008:021C0E8C       FieldActorSpinTask_Create
 0008:021C0ECC       FieldActorSpinTask_CreatePlayerAccel
 0008:021C0F18       FieldActorSpinTask_CreatePlayerDeaccel
 0008:021C0F64       FieldActorSpinTask_CalcSpinDirAcmd
 0008:021C0FB8       FieldActorSpinTask_CalcSpinDirAcmdQuad
 0008:021C1020       FieldActorSpinTask_CalcSpinDirAcmdSqrt
 0008:021C1084       FieldActorSpinTask_Callback
 0008:021C10D2       jpt_21C10D0
 0008:021C10DA       def_21C10D0
 0008:021C10F8       FieldActorSpinTask_CallbackAccel
 0008:021C1146       jpt_21C1144
 0008:021C114E       def_21C1144
 0008:021C116C       FieldActorSpinTask_CallbackDeaccel
 0008:021C11B8       FieldPlayerMoveTask_Create
 0008:021C11F0       FieldPlayerMoveTask_Callback
 0008:021C1304       FieldActorFallTask_Create
 0008:021C1344       FieldActorFallTask_CalcFallPos
 0008:021C13B0       FieldActorFallTask_Callback
 0008:021C1458       FieldWaitTask_Create
 0008:021C1494       FieldFadeTask_Create
 0008:021C14C4       FieldFadeTask_Callback
 0008:021C14D8       FieldActorMoveTask_CreatePlayer
 0008:021C14F8       FieldActorMoveTask_CreateRel
 0008:021C155C       FieldActorMoveTask_CreateAbs
 0008:021C15C0       FieldActorMoveTask_InterpVector
 0008:021C16A0       FieldActorMoveTask_CallbackRel
 0008:021C16FC       FieldActorMoveTask_CallbackAbs
 0008:021C1764       FieldCameraMoveTaskTargetOffs_Create
 0008:021C179C       FieldCameraTargetMoveTaskTargetOffs_Callback
 0008:021C1890       FieldCameraMoveTaskTarget_Create
 0008:021C18F4       FieldCameraMoveTaskTarget_Callback
 0008:021C19A8       FieldActorEffectTask_Create
 0008:021C19F8       FieldActorEffectTask_Callback
 0008:021C1A2C       FieldCameraShakeTask_Create
 0008:021C1A70       FieldCameraShakeTask_Callback
 0008:021C1AA8       jpt_21C1AA6
 0008:021C1AC6       def_21C1AA6
 0008:021C1BFC       FieldFlash_Create
 0008:021C1C30       FieldFlash_Free
 0008:021C1C4C       FieldFlash_Update
 0008:021C1C80       FieldFlash_Draw
 0008:021C1CA8       FieldFlashAnimation_Init
 0008:021C1CB4       FieldFlashAnimation_Reset
 0008:021C1CC0       FieldFlashAnimation_Set
 0008:021C1CE0       FieldFlashAnimation_Update
 0008:021C1D3C       FieldFlashAnimation_GetScale
 0008:021C1D40       FieldFlashAnimation_SetScale
 0008:021C1D44       FieldFlashAnimation_GetAlpha
 0008:021C1D48       FieldFlashAnimation_SetAlpha
 0008:021C1DC0       FieldSkillMapEff_Create
 0008:021C1DEC       FieldSkillMapEff_Free
 0008:021C1DFC       FieldSkillMapEff_Update
 0008:021C1E04       FieldSkillMapEff_Draw
 0008:021C1E0C       FieldSkillMapEff_GetFlash
 0008:021C1E10       FieldSkillMapEff_SetupFlash
 0008:021C1E40       FieldSkillMapEff_FreeFlash
 0008:021C1E50       FieldSkillMapEff_UpdateCore
 0008:021C1E5C       FieldSkillMapEff_DrawCore
 0008:021C1E68       FieldFlashG3D_Create
 0008:021C1EA4       FieldFlashG3D_Free
 0008:021C1EC8       FieldFlashG3D_Draw
 0008:021C1F7C       s019B_PlayFieldEffect
 0008:021C1FC0       s019C_PlayHMCutInEffect
 0008:021C2004       s019D_PlayAlderFlyEffect
 0008:021C22C4       denom
 0008:021C22D4       GetSlopeSlipTileConfig
 0008:021C22F8       IsTileSlopeSlip_
 0008:021C2380       EventSlopeSlip_Create
 0008:021C23C4       IsTileSlopeSlip
 0008:021C24EC       GetWaterCurrentTileConfig
 0008:021C2514       IsTileWaterCurrent_
 0008:021C25D8       EventWaterCurrentMove_Create
 0008:021C2640       IsTileWaterCurrent
 0008:021C2910       FieldTerrainEffectElec_Init
 0008:021C2934       nullsub_139
 0008:021C2CF4       ReadLandDataPatchA154Data
 0008:021C2D28       FreeLandDataPatch
 0008:021C2DA8       LoadLandDataPatchBuildings
 0008:021C2E0C       GetLandDataPatchBMDataPtr
 0008:021C3024       s01B1_CallLeagueLiftWarp
 0008:021C30A0       jpt_21C309E
 0008:021C313A       def_21C309E
 0008:021C3140       s01DE_PassPowerPopDepletedID
 0008:021C3C6C       FldActMatColorPreset_Create
 0008:021C3C94       FldActMatColorPreset_Free
 0008:021C3CA8       FldActMatColorPreset_Load
 0008:021C3CB8       FldActMatColorPreset_Apply
 0008:021C3D48       DecideAbyssalRuinsDiveZoneByUndellaBayPos
 0008:021C3D88       GetAbyssalRuinsDiveZoneID
 0008:021C3FE8       jpt_21C3FE6
 0008:021C4006       def_21C3FE6
 0008:021C4418       jpt_21C4416
 0008:021C448C       def_21C4416
 0008:021C5288       pDst
 0008:021C5DB4       EncEff_Create
 0008:021C5DD8       EncEff_Free
 0008:021C5DF0       EncEff_StartEvent
 0008:021C5E74       EncEff_GetEventData
 0008:021C5E78       EncEff_CallRenderFunc
 0008:021C5E84       EncEff_AllocWorkArea
 0008:021C5EA4       EncEff_FreeWorkArea
 0008:021C5EB8       EncEff_GetWorkArea
 0008:021C5EBC       EncEff_LoadSubOvl
 0008:021C5F04       EncEff_UnloadAllSubOverlays
 0008:021C5F30       EventBattleCall_DecideEnvWild
 0008:021C5F8E       jpt_21C5F8C
 0008:021C5FA0       def_21C5F8C
 0008:021C603A       jpt_21C6038
 0008:021C60E4       def_21C6038
 0008:021C61C4       EventBattleCall_DecideEnvTrainer
 0008:021C64D4       FieldEffect_BTrain_Create
 0008:021C64F4       FieldEffect_BTrain_Free
 0008:021C6AE0       nullsub_140
 0008:021C6F84       b
 0008:021C7060       FieldChunkAccessor_GetTerrainCore
 0008:021C720C       EventFieldSubscreenChange_Callback
 0008:021C724C       s0198_FieldSubscreenChange
 0008:021C72AC       s0199_FieldSubscreenReturn
 0008:021C72F8       FieldScriptSubEventFinish_Subscreen
 0008:021C73C8       FieldAmbience_CheckSoundID
 0008:021C73E8       FieldAmbience_IsLooped
 0008:021C7414       s01FA_PepQuizGenerate
 0008:021C74D0       s0214_CallPokemonPreview
 0008:021C7554       EventFieldPokeDisp_InitBmpWin
 0008:021C7598       EventFieldPokeDisp_UpdateBmpWin
 0008:021C75A4       EventFieldPokeDisp_InitClAct
 0008:021C7654       a10
 0008:021C765C       EventFieldPokeDisp_UpdateClAct
 0008:021C7680       EventFieldPokeDisp_Callback
 0008:021C7710       s019A_CGearControlWarning
 0008:021C77FC       s0227_RecordAdd
 0008:021C7838       s0228_RecordGet
 0008:021C79F8       mons
 0008:021C79FC       s02BC_TVCheckCommercial
 0008:021C7A3C       s02BD_TVGenCommercialMsgID
 0008:021C7A70       EventEvCameraShake_Create
 0008:021C7AA4       EventEvCameraShake_Callback
 0008:021C7B70       s026E_MedalGetCount
 0008:021C7BA8       jpt_21C7BA6
 0008:021C7BFC       def_21C7BA6
 0008:021C7C00       s0271_MedalAcknowledge
 0008:021C7C88       s0272_MedalGetGuruActor
 0008:021C7CD4       s0273_MedalGive
 0008:021C7D0C       s029F_MedalDiscover
 0008:021C7D44       s029E_MedalGetFieldEffectID
 0008:021C7D88       CountMedalsByStatus
 0008:021C7DB8       GetHintableMedalCount
 0008:021C7E14       s02A0_MedalIsObtained
 0008:021C7E54       s02A1_MedalGetMostCompleteCategory
 0008:021C7F54       GetMrMedalActorIndex
 0008:021C7F9C       GetMrMedalActorUID
 0008:021C7FE8       s02E1_MedalDiscoverInitial
 0008:021C8010       FieldDispControl_Create
 0008:021C8038       FieldDispControl_Free
 0008:021C8040       FieldDispControl_Update
 0008:021C80D8       FieldDispControl_ReqSetBGEnabled
 0008:021C80E0       FieldDispControl_ReqSetAlphaA
 0008:021C80F4       FieldDispControl_ReqSetAllA
 0008:021C810C       FieldDispControl_ReqAdjustAlphaA
 0008:021C8118       FieldDispControl_ReqSetAlphaB
 0008:021C812C       FieldDispControlProc_ResetBrightness
 0008:021C8148       FieldDispControlProc_SetAlpha
 0008:021C817C       FieldDispControlProc_SetBrightness
 0008:021C81A0       FieldDispControlProc_SetAll
 0008:021C81E0       FieldDispControlProc_AdjustAlpha
 0008:021C8208       FieldDispControlProc_AdjustBrightness
 0008:021C822C       FieldPalaceSys_Create
 0008:021C8264       FieldPalaceSys_Free
 0008:021C827C       FieldPalaceSys_GetLuminanceTable
 0008:021C8280       FieldPalaceSys_InitPostFX
 0008:021C82FC       FieldPalaceSys_LoadLuminanceTable
 0008:021C83D8       FieldPalaceSys_CheckEventFlag
 0008:021C8420       FieldLensFlare_Create
 0008:021C84C8       FieldLensFlare_Free
 0008:021C84E8       FieldLensFlare_Update
 0008:021C8512       jpt_21C8510
 0008:021C85F6       def_21C8510
 0008:021C8610       FieldLensFlare_RequestStart
 0008:021C8628       FieldLensFlare_GreenlightStart
 0008:021C8634       FieldLensFlare_Cancel
 0008:021C8654       FieldLensFlare_DecideForZoneTransit
 0008:021C86C0       FieldLensFlare_CalcPos
 0008:021C8720       FieldLensFlare_Load
 0008:021C8808       FieldLensFlare_IsApplicable
 0008:021C8814       FieldLensFlare_GetSubIndexForDayPeriod
 0008:021C8824       jpt_21C8822
 0008:021C883A       def_21C8822
 0008:021C8840       FieldLensFlareData_Create
 0008:021C886C       FieldLensFlareData_Free
 0008:021C8880       FieldLensFlare_GetEffectSetID
 0008:021C8898       FieldLensFlareData_BytesToEntryCount
 0008:021C88A4       FieldLensFlareData_GetLensFlareID
 0008:021C88B4       FieldLensFlareData_GetEffectSetSize
 0008:021C88D8       FieldLensFlareData_GetResDatID
 0008:021C88E8       jpt_21C88E6
 0008:021C892E       def_21C88E6
 0008:021C8948       FieldLensFlareData_GetEntry
 0008:021C8954       FieldLensFlareData_GetIdxForZoneTransit
 0008:021C8C6C       generateHollow
 0008:021C8D08       s0294_HiddenHollowGetParam
 0008:021C8D9E       jpt_21C8D9C
 0008:021C8EB0       def_21C8D9C
 0008:021C8EBC       s0295_HiddenHollowReset
 0008:021C8F24       s0293_HiddenHollowCallWarpIn
 0008:021C8FA0       EventHiddenHollowWarpIn_Callback
 0008:021C9054       CreateHiddenHollowWarpPosVec
 0008:021C9070       SetupHiddenHollowEvents
 0008:021C90E8       CreateGenericHiddenHollowPokemonActor
 0008:021C914C       CreateHiddenHollowPokemonActor
 0008:021C91C4       isFoongusAmoongus
 0008:021C91DC       CreateHiddenHollowItemActor
 0008:021C9208       s0296_HiddenHollowCallWarpOut
 0008:021C926C       EventHiddenHollowWarpOut_Callback
 0008:021C9338       getSlotFilePtr
 0008:021C9340       s02E5_HiddenHollowSet
 0008:021C941C       s02E6_HiddenHollowCreateEvents
 0008:021C9658       s02AC_CallLeafPileStuck
 0008:021C9680       EventLeafPileStuck_Create
 0008:021C96D4       EventLeafPileStuck_Callback
 0008:021C96F0       jpt_21C96EE
 0008:021C97E6       def_21C96EE
 0008:021C98F4       LoadPWTTournamentTypeText
 0008:021C992C       s02CF_PokeDexCheckHabitatList
 0008:021C99E8       CheckHabitatList
 0008:021C9B34       s02DD_UnityTowerGetVisitorCount
 0008:021C9C58       s02DE_UnityTowerSetHobby
 0008:021C9C90       s02DF_UnityTowerGetHobby
 0008:021C9CC8       s02DB_UnityTowerSetFloor
 0008:021C9CFC       s02DC_UnityTowerInitVisitorMessage
 0008:021C9D84       DiscoverInitialMedalsCore
 0008:021C9E2C       read_length
 0008:021C9E30       DiscoverInitialMedals
 0008:021C9E38       CheckResetKeldeoOrdinaryForme
 0008:021C9EEC       FIELDMAP_PROC_FUNCS
 0008:021C9EFC       FIELD_LIGHT_SETUP
 0008:021C9F04       FIELD_RENDER_FUNCS_PHASE2
 0008:021C9F10       DEFAULT_FIELDCAMERA_POS
 0008:021C9F1C       DEFAULT_FIELDCAMERA_TGT
 0008:021C9F28       FIELD_RENDER_FUNCS_PHASE1
 0008:021C9F34       FIELD_DEFAULT_EDGE_COLOR_TABLE
 0008:021C9F44       FIELD_LCD_CONFIG
 0008:021C9F70       FIELD_STD_PALETTE
 0008:021C9F90       FIELD_DEFAULT_FOG_TABLE
 0008:021C9FD8       FIELDMAP_VRAM_CONFIG
 0008:021CA008       FIELDMAP_ROUTINES
 0008:021CA038       DEFAULT_FIELDCAMERA_UP
 0008:021CA050       MAP_CONFIGS
 0008:021CA878       SPECIAL_TILE_SCRIPTS
 0008:021CA8E0       FIELD_PROP_ANM_IDX_FOR_DAY_PART
 0008:021CA8E8       FIELD_PROP_ANMCNT_VTABLES
 0008:021CA918       DOOR_SOUND_ID_LUT
 0008:021CA954       BM_TYPE_LUT
 0008:021CA96C       FIELD_CHUNK_VTABLES
 0008:021CA9D4       FIELD_CAMERA_TRANSFORM_FUNCS
 0008:021CAB68       IRC_MENU_PROC
 0008:021CAC10       gx_modes
 0008:021CAD28       ACMD_DIR_TABLE
 0008:021CB128       ACMD_RUN4F_TABLE
 0008:021CB2F0       ACMD_JUMP3G16F_TABLE
 0008:021CB380       ACMD_JUMP8F
 0008:021CB3B0       ACMD_JUMP16F
 0008:021CB3E0       ACMD_TURN2_TABLE
 0008:021CB410       ACMD_TURN4_TABLE
 0008:021CB440       ACMD_TURN8_TABLE
 0008:021CB470       ACMD_TURN16_TABLE
 0008:021CB4A0       ACMD_TURN32_TABLE
 0008:021CB500       ACMD_WALK2_TABLE
 0008:021CB530       ACMD_WALK4_TABLE
 0008:021CB560       ACMD_WALK8_TABLE
 0008:021CB590       ACMD_WALK16_TABLE
 0008:021CB5C0       ACMD_WALK32_TABLE
 0008:021CB5F0       ACMD_TCB_FUNCS
 0008:021CBE24       ACTOR_EVENTTYPE_FUNCS
 0008:021CC92C       ACMD_DIR_LUT
 0008:021CC9C4       ACTOR_MOVE_CODE_FUNCTION_TABLES
 0008:021CCB1C       ACTOR_ACTION_COMMAND_TABLES
 0008:021CCE20       ACTOR_ACTION_COMMAND_TABLES_RAIL
 0008:021CE3E0       MMDL_BILLBOARD_SIZES_INT
 0008:021CE59C       FIELD_ACTOR_MAIN_VTABLES
 0008:021CF318       MMDL_TEXTURE_ATLAS_SIZE_BITS
 0008:021CF9EC       setup
 0008:021CFA0C       FIELD_SUBSCREEN_VTABLES
 0008:021CFBA0       WEATHER_OVERLAYS
 0008:021CFC30       FIELDMAP_CTRL_GRID
 0008:021CFC44       PLAYER_SPRITE_MAP
 0008:021CFC94       PLAYER_EXSTATE_CHANGE_VTABLE_DIVE
 0008:021CFC98       PLAYER_EXSTATE_CHANGE_VTABLE_NONE
 0008:021CFC9C       PLAYER_EXSTATE_CHANGE_VTABLE_SURF
 0008:021CFCC8       PLAYER_EXSTATE_CHANGE_VTABLE_CYCLING
 0008:021CFCFC       PLAYER_EXSTATE_CHANGE_VTABLES
 0008:021CFD24       FIELD_PLAYER_GRID_CONST_MOVE_FUNCS
 0008:021CFD38       TILE_FLAG_SFX_LAY0
 0008:021CFD44       TILE_FLAG_SFX_LAY1
 0008:021CFE28       FIELDMAP_CTRL_NOGRID
 0008:021CFE3C       FIELDMAP_CTRL_HYBRID
 0008:021CFE50       TEX_FMT_PIXELS_PER_BYTE
 0008:021CFE58       TEXIMAGE_DIM_TO_PIXELS
 0008:021CFF64       aNoname
 0008:021D014C       item_percent
 0008:021D0158       ENCOUNT_SLOT_RANDOMIZE_FUNCS
 0008:021D0168       ENCOUNTRATE_RND5T1
 0008:021D017C       ENCOUNTRATE_RND5T2
 0008:021D0190       ENCOUNTRATE_RND12
 0008:021D01C0       N_POKEMON_INFO
 0008:021D0230       swarm_info
 0008:021D02C8       ENCOUNT_RATE_CONFIGS
 0008:021D02FE       DUST_CLOUD_ITEMS_SHARDS
 0008:021D0310       DUST_CLOUD_ITEMS_NORMAL
 0008:021D0338       DUST_CLOUD_SHARD_ZONES
 0008:021D03A8       FIELD_CAMERA_ARCIDS
 0008:021D03B0       FIELD_CAMERA_AREA_FUNCS
 0008:021D03CC       STATIC_LOADED_FIELD_EFFECT_IDS
 0008:021D0420       FIELD_EFFECT_VTABLES
 0008:021D0854       TRAINER_LOS_DIST_FUNCTIONS
 0008:021D0864       EVENT_TRAINER_EYE_ROUTINES
 0008:021D08AC       ACTOR_MSGWIN_CALC_AXIS_Y
 0008:021D08B8       ACTOR_MSGWIN_ORIGIN_OFFSET_TABLE
 0008:021D0920       ACMD_QUEUE_TURN_E_8F
 0008:021D0928       ACMD_QUEUE_TURN_W_8F
 0008:021D0930       ACMD_QUEUE_TURN_S_8F
 0008:021D0938       ACMD_QUEUE_TURN_N_8F
 0008:021D094C       BP_SHOP_ITEM_COUNTS
 0008:021D094E       MOVE_TUTOR_SHOP_ITEM_COUNTS
 0008:021D095E       MOVE_TUTOR_CURRENCY_ITEMS
 0008:021D0968       SHOP_UI_CURRENCY_MSGIDS
 0008:021D0970       BADGE_SHOP_DAT_IDS
 0008:021D0A9C       SPECIAL_POKE_MART_HEADERS
 0008:021D0ADC       BP_SHOP_ITEMS_TMS
 0008:021D0B6C       MOVE_TUTOR_ITEMS_HUMILAU_CITY
 0008:021D0C08       MOVE_TUTOR_ITEMS_DRIFTVEIL_CITY
 0008:021D0CBC       MOVE_TUTOR_ITEMS_NACRENE_CITY
 0008:021D0D70       MOVE_TUTOR_ITEMS_LENTIMAS_TOWN
 0008:021D0E3C       BP_SHOP_ITEMS_NORMAL
 0008:021D0F8C       CHALLENGE_FISHING_ZONES
 0008:021D0F98       item_type_file_nums
 0008:021D0FFC       DefaultRailCurve
 0008:021D12A8       GIMMICK_OVERLAY_INFO
 0008:021D1658       building_gfx_modes
 0008:021D1CE4       gfx_modes
 0008:021D1E24       FLD3DCI_FADE_ANIMATIONS
 0008:021D1F44       FIELD_EFFECT_HEAP_SIZES
 0008:021D2118       moveFieldLUT_3
 0008:021D2128       moveFieldLUT_2
 0008:021D2138       moveFieldLUT_1
 0008:021D2148       moveFieldLUT_0
 0008:021D2158       moveFieldLUT
 0008:021D2168       ivInheritLUT
 0008:021D2180       powerItemLUT
 0008:021D2198       ivFieldLUT
 0008:021D21B0       incenseLUT
 0008:021D22F4       FIELD_FLASH_FUNCTIONS
 0008:021D23B0       WATER_CURRENT_TILES
 0008:021D2428       ELEC_TERRAIN_FX_TRANSFORM
 0008:021D2574       UNDELLA_BAY_DIVE_WARPS
 0008:021D2620       ENC_EFFECT_CONTROLLERS
 0008:021D2918       SPECIAL_TRAINER_BGM
 0008:021D2934       SPECIAL_TRAINER_ENCEFF
 0008:021D295C       BATTLE_SUBWAY_TRAIN_EFFECT_DATIDS
 0008:021D2A38       MAP_HEIGHT_SLOPE_TABLE
 0008:021D31A8       MAP_HEIGHT_OFFSET_TABLE
 0008:021D45BC       SCRIPTED_SUBSCREEN_LUT
 0008:021D45C0       FIELD_AMBIENT_SOUNDS
 0008:021D4670       PEP_QUIZ_ANSWER_IDS
 0008:021D46CC       MEDAL_TYPE_TO_CATEGORY
 0008:021D4738       ENTRALINK_WORLD_ZONES
 0008:021D47EC       LENS_FLARE_RESOURCE_IDS
 0008:021D484C       slot_percent_list
 0008:021D49EC       HABITAT_LIST_HEADERS
 0008:021D4B60       aFieldmap_c
 0008:021D4B6C       aField_buildmodel_c
 0008:021D4B80       GND_ANIME_WK
 0008:021D4B8C       aField_g3d_mapper_c
 0008:021D4BA0       FIELD_CAMERA_TRANSFORM_CONVERT_FUNCS
 0008:021D4BAC       FIELD_CAMERA_TRANSFORM_INIT_FUNCS
 0008:021D4BB8       MM_CAMBOUND_FUNCS
 0008:021D4BC8       aField_camera_c
 0008:021D4BD8       aField_camera_anime_c
 0008:021D4BF0       aField_msgbg_c
 0008:021D4C00       aField_wfbc_c
 0008:021D4C10       aField_comm_actor_c
 0008:021D4C24       TALKMSG_WIN_TEX
 0008:021D4C44       TALKMSG_WIN_PLT
 0008:021D4C64       aTalkmsgwinC
 0008:021D4CB4       vramConfig
 0008:021D4D64       aIrcbattlemenu_c
 0008:021D4D80       aFldmmdl_acmd_c
 0008:021D4D90       aFldmmdl_blact_c
 0008:021D4DA0       aFldmmdl_g3dobj_c
 0008:021D4DC0       RAIL_CONV_RAIL_TO_WORLD_FUNCS
 0008:021D4DCC       RAIL_CONV_WORLD_TO_RAIL_FUNCS
 0008:021D4DD8       RAIL_CAMERA_CURVE_FUNC_SET
 0008:021D4E28       aField_rail_loader_c
 0008:021D4E3C       aField_fog_c
 0008:021D4E48       aField_zonefog_c
 0008:021D4E58       aField_light_c
 0008:021D4E68       aField_subscreen_c
 0008:021D4E7C       aField_3dbg_c
 0008:021D4E94       aWeather_c
 0008:021D4EA0       aWeather_task_c
 0008:021D4EB0       aFieldmap_ctrl_grid_c
 0008:021D4EC8       aField_player_c
 0008:021D4ED8       aField_player_core_c
 0008:021D4EEC       aField_player_grid_c
 0008:021D4F00       npc
 0008:021D4F24       aField_player_nogrid_c
 0008:021D4F3C       aFieldmap_ctrl_nogrid_work_c
 0008:021D4F84       aFieldmap_ctrl_hybrid_c
 0008:021D4F9C       aField_ground_anime_c
 0008:021D4FB4       aField_menu_c
 0008:021D4FC4       aField_encount_c
 0008:021D4FD4       aEffect_encount_c
 0008:021D4FE8       aFld_scenearea_c
 0008:021D4FF8       CAM_COLL_CHECK_FUNCS
 0008:021D5000       CAM_CALC_FUNCS
 0008:021D5020       aFld_scenearea_loader_c
 0008:021D5038       aField_effect_c
 0008:021D5048       aFldeff_shadow_c
 0008:021D5058       aFldeff_kemuri_c
 0008:021D5090       aFldeff_grass_c
 0008:021D50A0       aFldeff_namipoke_c
 0008:021D5108       aFldeff_encount_c
 0008:021D511C       aU
 0008:021D512C       aFldeff_iwakudaki_c
 0008:021D5144       aFldeff_fishing_c
 0008:021D5164       aFldeff_fes_kira_c
 0008:021D5178       aEvent_trainer_eye_c
 0008:021D518C       aScrcmd_fldmmdl_c
 0008:021D51A0       BP_SHOP_ITEMS
 0008:021D51A8       MOVE_TUTOR_SHOP_ITEMS
 0008:021D520C       aScrcmd_shop_c
 0008:021D521C       aScrcmd_proc_fld_c
 0008:021D5230       aScrcmd_encount_c
 0008:021D5244       aScrcmd_fld_battle_c
 0008:021D5258       aScrcmd_pokemon_fld_c
 0008:021D5278       aField_rail_c
 0008:021D528C       aStart
 0008:021D5294       aEnd
 0008:021D529C       aRail_attr_c
 0008:021D52A8       aField_nogrid_mapper_c
 0008:021D52C0       aFldeff_gyoe_c
 0008:021D52D0       aFieldmap_func_c
 0008:021D52E4       aBpcNullMine_pmsdataNull
 0008:021D5308       aMine_pmsdataNullMine_pmsdataNu
 0008:021D5364       aFldeff_footmark_c
 0008:021D5378       aFldeff_reflect_c
 0008:021D538C       aField_place_name_c
 0008:021D53A0       aField_fmission_info_c
 0008:021D53B8       aFes_gimmick_c
 0008:021D53F0       aPlace_name_letter_c
 0008:021D5404       aEntrance_camera_c
 0008:021D5418       aFld_exp_obj_c
 0008:021D5428       aField_fade_c
 0008:021D5438       aHeight_ex_c
 0008:021D5444       aField_player_grid_event_c
 0008:021D5460       aFld_particle_c
 0008:021D5470       aFld3d_ci_c
 0008:021D547C       aName_up
 0008:021D5484       aName_up_pl
 0008:021D5490       texName
 0008:021D549C       palName
 0008:021D54AC       aTrsw_hero02
 0008:021D54B8       aTrsw_hero02_pl
 0008:021D54C8       aName_down
 0008:021D54D4       aName_down_pl
 0008:021D54E4       aSodateya_c
 0008:021D54F4       aFldeff_ripple_c
 0008:021D5504       aFldeff_splash_c
 0008:021D5514       aSound_obj_c
 0008:021D5520       aShortcut_menu_c
 0008:021D5530       aField_g3dobj_c
 0008:021D5540       aFieldmap_tcb_camera_zoom_c
 0008:021D555C       aField_task_c
 0008:021D556C       aField_task_manager_c
 0008:021D5584       aField_flash_c
 0008:021D5594       aFieldskill_mapeff_c
 0008:021D55A8       aFld_wipe_3dobj_c
 0008:021D55BC       aPleasure_boat_c
 0008:021D55CC       aFldeff_d06denki_c
 0008:021D55E0       aLand_data_patch_c
 0008:021D5600       aFldeff_iaigiri_c
 0008:021D5618       aTemotiNullBboxNull
 0008:021D5638       aParty_select_list_c
 0008:021D564C       aPslFinishTrue
 0008:021D5660       aField_bbd_color_c
 0008:021D5674       aComm_entry_menu_c
 0008:021D5688       aEnceff_c
 0008:021D5694       aFldeff_btrain_c
 0008:021D56A4       aFldeff_hide_c
 0008:021D56B4       mdlMtx
 0008:021D56F0       aFldeff_bubble_c
 0008:021D5700       aField_saveanime_c
 0008:021D5714       FIELD_DISP_CONTROL_PROCS
 0008:021D5730       aFld_vreq_c
 0008:021D573C       aField_palace_sys_c
 0008:021D5750       FieldGooutEffectC
 0008:021D5768       aField_goout_effect_data_c
 0008:021D5784       aResort_mapcreate_c
 0008:021D5798       aFldeff_ochiba_c
 0008:021D57A8       aScrcmd_ochiba_c
 0008:021D57BC       aP_medal_box
 0001:021DEB2C       publics
 0001:021E57E0       g_FieldEdgeColorTable
 000C:021E8C20       InitItemBag_
 000C:021E8C68       itemId
 000C:021E8C70       InitDreamRadarFlagSave_
 000C:021E8CA4       InitItemBag
 000C:021E8CAC       InitDreamRadarFlagSave
 000A:021E9528       jpt_21E9526
 000A:021E95FC       def_21E9526
 000F:021EF03C       jpt_21EF03A
 000F:021EF592       jpt_21EF590
 000F:021EF5AC       def_21EF590
 000F:021EF6B6       jpt_21EF6B4
 000F:021EF6EE       def_21EF6B4
 000F:021EF73A       jpt_21EF738
 000F:021EF772       def_21EF738
 000F:021EF78A       def_21EF840
 000F:021EF7BE       jpt_21EF7BC
 000F:021EF7F6       def_21EF7BC
 000F:021EF842       jpt_21EF840
 000F:021EF8D6       jpt_21EF8D4
 000F:021EF8FA       def_21EF8D4
 000F:021F01CE       jpt_21F01CC
 000F:021F032A       def_21F01CC
 000F:021F07CC       aFieldGimmickGa
 000F:021F07E4       aGimmickObjElbo
 0010:021F5B64       EventEncountEffectCutin_Create
 0010:021F5B94       EventEncountEffectCutin_Callback
 0010:021F5BC2       jpt_21F5BC0
 0010:021F5C4C       def_21F5BC0
 0010:021F5C54       EventEncountEffectCutinFallback_Callback
 0011:021F5CA0       BattleCutinDB_GetParam
 0011:021F5CB0       BATTLE_CUTIN_DB
 0003:02FE0020       IRQ_FUNCTIONS
 0003:02FE3FF8       g_IRQWaitBits
 0003:02FE3FFC       g_IrqHandler
 0001:02FFFC40       g_BootIndicator
 0001:02FFFD9C       g_ExceptionHandler
 0001:02FFFDA0       os_MemRegionStarts
 0001:02FFFDC4       os_MemRegionEnds
 0001:02FFFE00       g_ROMHeader
 0001:02FFFFB0       g_AvailCartMutexBitsLow
 0001:02FFFFB4       g_AvailCartMutexBitsHigh
 0001:04000000       DISPCNT_A
 0001:04000004       DISPSTAT
 0001:04000006       VCOUNT
 0001:04000008       LCDIO_A
 0001:04000060       DISP3DCNT
 0001:04000064       DISPCAPCNT
 0001:0400006C       MASTER_BRIGHT_A
 0001:040000B0       DMA_CHANNELS
 0001:040000E0       DMAFILL
 0001:04000100       TM0CNT_L
 0001:04000102       TM0CNT_H
 0001:04000130       KEYINPUT
 0001:04000180       IPCSYNC
 0001:04000184       IPCFIFOCNT
 0001:04000188       IPCFIFOSEND
 0001:040001A1       AUXSPICNT
 0001:040001A4       ROMCTRL
 0001:040001A8       GAMECARD_8BYTE_OUT
 0001:04000204       EXMEMCNT
 0001:04000208       IME
 0001:04000210       IE
 0001:04000214       IF
 0001:04000240       VRAMCNT_A
 0001:04000241       VRAMCNT_B
 0001:04000242       VRAMCNT_C
 0001:04000243       VRAMCNT_D
 0001:04000244       VRAMCNT_E
 0001:04000245       VRAMCNT_F
 0001:04000246       VRAMCNT_G
 0001:04000247       WRAMCNT
 0001:04000248       VRAMCNT_H
 0001:04000249       VRAMCNT_I
 0001:04000280       DIVCNT
 0001:04000290       DIV_NUMER
 0001:04000298       DIV_DENOM
 0001:040002A0       DIV_RESULT
 0001:040002A8       DIVREM_RESULT
 0001:040002B0       SQRTCNT
 0001:040002B4       SQRT_RESULT
 0001:040002B8       SQRT_PARAM
 0001:04000304       POWCNT1
 0001:04000320       RDLINES_COUNT
 0001:04000330       EDGE_COLOR
 0001:04000340       ALPHA_TEST_REF
 0001:04000350       CLEAR_COLOR
 0001:04000354       CLEAR_DEPTH
 0001:04000356       CLRIMAGE_OFFSET
 0001:04000358       FOG_COLOR
 0001:0400035C       FOG_OFFSET
 0001:04000360       FOG_TABLE
 0001:04000380       TOON_TABLE
 0001:04000400       GXFIFO
 0001:04000440       MTX_MODE
 0001:04000444       MTX_PUSH
 0001:04000448       MTX_POP
 0001:0400044C       MTX_STORE
 0001:04000450       MTX_RESTORE
 0001:04000454       MTX_IDENTITY
 0001:04000458       MTX_LOAD_4X4
 0001:0400045C       MTX_LOAD_4X3
 0001:04000460       MTX_MULT_4X4
 0001:04000464       MTX_MULT_4X3
 0001:04000468       MTX_MULT_3x3
 0001:0400046C       MTX_SCALE
 0001:04000470       MTX_TRANS
 0001:04000480       COLOR
 0001:04000484       NORMAL
 0001:04000488       TEXCOORD
 0001:0400048C       VTX_16
 0001:04000490       VTX_10
 0001:04000494       VTX_XY
 0001:04000498       VTX_XZ
 0001:0400049C       VTX_YZ
 0001:040004A0       VTX_DIFF
 0001:040004A4       POLYGON_ATTR
 0001:040004A8       TEXIMAGE_PARAM
 0001:040004AC       PALETTE_BASE
 0001:040004C0       DIF_AMB
 0001:040004C4       SPE_EMI
 0001:040004C8       LIGHT_VECTOR
 0001:040004CC       LIGHT_COLOR
 0001:040004D0       SHININESS
 0001:04000500       BEGIN_VTXS
 0001:04000504       END_VTXS
 0001:04000540       SWAP_BUFFERS
 0001:04000580       VIEWPORT
 0001:040005C0       BOX_TEST
 0001:040005C4       POS_TEST
 0001:040005C8       VEC_TEST
 0001:04000600       GXSTAT
 0001:04000604       POLY_RAM_COUNT
 0001:04000610       DISP_1DOT_DEPTH
 0001:04000620       POS_RESULT
 0001:04000630       VEC_RESULT
 0001:04000640       CLIPMTX_RESULT
 0001:04000680       VECMTX_RESULT
 0001:04001000       DISPCNT_B
 0001:04001008       LCDIO_B
 0001:0400106C       MASTER_BRIGHT_B
 0001:05000000       STD_PALETTE_BG_A
 0001:05000200       STD_PALETTE_OBJ_A
 0001:05000400       STD_PALETTE_BG_B
 0001:05000600       STD_PALETTE_OBJ_B
 0001:06800000       VRAM_A
 0001:06820000       VRAM_B
 0001:06840000       VRAM_C
 0001:06860000       VRAM_D
 0001:06880000       VRAM_E
 0001:06890000       VRAM_F
 0001:06894000       VRAM_G
 0001:06898000       VRAM_H
 0001:068A0000       VRAM_I
